
ctarget:     file format elf64-x86-64


Disassembly of section .init:

0000000000400c48 <_init>:
  400c48:	48 83 ec 08          	sub    $0x8,%rsp
  400c4c:	48 8b 05 a5 43 20 00 	mov    0x2043a5(%rip),%rax        # 604ff8 <_DYNAMIC+0x1d0>
  400c53:	48 85 c0             	test   %rax,%rax
  400c56:	74 05                	je     400c5d <_init+0x15>
  400c58:	e8 43 02 00 00       	callq  400ea0 <socket@plt+0x10>
  400c5d:	48 83 c4 08          	add    $0x8,%rsp
  400c61:	c3                   	retq   

Disassembly of section .plt:

0000000000400c70 <strcasecmp@plt-0x10>:
  400c70:	ff 35 92 43 20 00    	pushq  0x204392(%rip)        # 605008 <_GLOBAL_OFFSET_TABLE_+0x8>
  400c76:	ff 25 94 43 20 00    	jmpq   *0x204394(%rip)        # 605010 <_GLOBAL_OFFSET_TABLE_+0x10>
  400c7c:	0f 1f 40 00          	nopl   0x0(%rax)

0000000000400c80 <strcasecmp@plt>:
  400c80:	ff 25 92 43 20 00    	jmpq   *0x204392(%rip)        # 605018 <_GLOBAL_OFFSET_TABLE_+0x18>
  400c86:	68 00 00 00 00       	pushq  $0x0
  400c8b:	e9 e0 ff ff ff       	jmpq   400c70 <_init+0x28>

0000000000400c90 <__errno_location@plt>:
  400c90:	ff 25 8a 43 20 00    	jmpq   *0x20438a(%rip)        # 605020 <_GLOBAL_OFFSET_TABLE_+0x20>
  400c96:	68 01 00 00 00       	pushq  $0x1
  400c9b:	e9 d0 ff ff ff       	jmpq   400c70 <_init+0x28>

0000000000400ca0 <srandom@plt>:
  400ca0:	ff 25 82 43 20 00    	jmpq   *0x204382(%rip)        # 605028 <_GLOBAL_OFFSET_TABLE_+0x28>
  400ca6:	68 02 00 00 00       	pushq  $0x2
  400cab:	e9 c0 ff ff ff       	jmpq   400c70 <_init+0x28>

0000000000400cb0 <strncmp@plt>:
  400cb0:	ff 25 7a 43 20 00    	jmpq   *0x20437a(%rip)        # 605030 <_GLOBAL_OFFSET_TABLE_+0x30>
  400cb6:	68 03 00 00 00       	pushq  $0x3
  400cbb:	e9 b0 ff ff ff       	jmpq   400c70 <_init+0x28>

0000000000400cc0 <strcpy@plt>:
  400cc0:	ff 25 72 43 20 00    	jmpq   *0x204372(%rip)        # 605038 <_GLOBAL_OFFSET_TABLE_+0x38>
  400cc6:	68 04 00 00 00       	pushq  $0x4
  400ccb:	e9 a0 ff ff ff       	jmpq   400c70 <_init+0x28>

0000000000400cd0 <puts@plt>:
  400cd0:	ff 25 6a 43 20 00    	jmpq   *0x20436a(%rip)        # 605040 <_GLOBAL_OFFSET_TABLE_+0x40>
  400cd6:	68 05 00 00 00       	pushq  $0x5
  400cdb:	e9 90 ff ff ff       	jmpq   400c70 <_init+0x28>

0000000000400ce0 <write@plt>:
  400ce0:	ff 25 62 43 20 00    	jmpq   *0x204362(%rip)        # 605048 <_GLOBAL_OFFSET_TABLE_+0x48>
  400ce6:	68 06 00 00 00       	pushq  $0x6
  400ceb:	e9 80 ff ff ff       	jmpq   400c70 <_init+0x28>

0000000000400cf0 <__stack_chk_fail@plt>:
  400cf0:	ff 25 5a 43 20 00    	jmpq   *0x20435a(%rip)        # 605050 <_GLOBAL_OFFSET_TABLE_+0x50>
  400cf6:	68 07 00 00 00       	pushq  $0x7
  400cfb:	e9 70 ff ff ff       	jmpq   400c70 <_init+0x28>

0000000000400d00 <mmap@plt>:
  400d00:	ff 25 52 43 20 00    	jmpq   *0x204352(%rip)        # 605058 <_GLOBAL_OFFSET_TABLE_+0x58>
  400d06:	68 08 00 00 00       	pushq  $0x8
  400d0b:	e9 60 ff ff ff       	jmpq   400c70 <_init+0x28>

0000000000400d10 <memset@plt>:
  400d10:	ff 25 4a 43 20 00    	jmpq   *0x20434a(%rip)        # 605060 <_GLOBAL_OFFSET_TABLE_+0x60>
  400d16:	68 09 00 00 00       	pushq  $0x9
  400d1b:	e9 50 ff ff ff       	jmpq   400c70 <_init+0x28>

0000000000400d20 <alarm@plt>:
  400d20:	ff 25 42 43 20 00    	jmpq   *0x204342(%rip)        # 605068 <_GLOBAL_OFFSET_TABLE_+0x68>
  400d26:	68 0a 00 00 00       	pushq  $0xa
  400d2b:	e9 40 ff ff ff       	jmpq   400c70 <_init+0x28>

0000000000400d30 <close@plt>:
  400d30:	ff 25 3a 43 20 00    	jmpq   *0x20433a(%rip)        # 605070 <_GLOBAL_OFFSET_TABLE_+0x70>
  400d36:	68 0b 00 00 00       	pushq  $0xb
  400d3b:	e9 30 ff ff ff       	jmpq   400c70 <_init+0x28>

0000000000400d40 <read@plt>:
  400d40:	ff 25 32 43 20 00    	jmpq   *0x204332(%rip)        # 605078 <_GLOBAL_OFFSET_TABLE_+0x78>
  400d46:	68 0c 00 00 00       	pushq  $0xc
  400d4b:	e9 20 ff ff ff       	jmpq   400c70 <_init+0x28>

0000000000400d50 <__libc_start_main@plt>:
  400d50:	ff 25 2a 43 20 00    	jmpq   *0x20432a(%rip)        # 605080 <_GLOBAL_OFFSET_TABLE_+0x80>
  400d56:	68 0d 00 00 00       	pushq  $0xd
  400d5b:	e9 10 ff ff ff       	jmpq   400c70 <_init+0x28>

0000000000400d60 <signal@plt>:
  400d60:	ff 25 22 43 20 00    	jmpq   *0x204322(%rip)        # 605088 <_GLOBAL_OFFSET_TABLE_+0x88>
  400d66:	68 0e 00 00 00       	pushq  $0xe
  400d6b:	e9 00 ff ff ff       	jmpq   400c70 <_init+0x28>

0000000000400d70 <gethostbyname@plt>:
  400d70:	ff 25 1a 43 20 00    	jmpq   *0x20431a(%rip)        # 605090 <_GLOBAL_OFFSET_TABLE_+0x90>
  400d76:	68 0f 00 00 00       	pushq  $0xf
  400d7b:	e9 f0 fe ff ff       	jmpq   400c70 <_init+0x28>

0000000000400d80 <__memmove_chk@plt>:
  400d80:	ff 25 12 43 20 00    	jmpq   *0x204312(%rip)        # 605098 <_GLOBAL_OFFSET_TABLE_+0x98>
  400d86:	68 10 00 00 00       	pushq  $0x10
  400d8b:	e9 e0 fe ff ff       	jmpq   400c70 <_init+0x28>

0000000000400d90 <strtol@plt>:
  400d90:	ff 25 0a 43 20 00    	jmpq   *0x20430a(%rip)        # 6050a0 <_GLOBAL_OFFSET_TABLE_+0xa0>
  400d96:	68 11 00 00 00       	pushq  $0x11
  400d9b:	e9 d0 fe ff ff       	jmpq   400c70 <_init+0x28>

0000000000400da0 <memcpy@plt>:
  400da0:	ff 25 02 43 20 00    	jmpq   *0x204302(%rip)        # 6050a8 <_GLOBAL_OFFSET_TABLE_+0xa8>
  400da6:	68 12 00 00 00       	pushq  $0x12
  400dab:	e9 c0 fe ff ff       	jmpq   400c70 <_init+0x28>

0000000000400db0 <time@plt>:
  400db0:	ff 25 fa 42 20 00    	jmpq   *0x2042fa(%rip)        # 6050b0 <_GLOBAL_OFFSET_TABLE_+0xb0>
  400db6:	68 13 00 00 00       	pushq  $0x13
  400dbb:	e9 b0 fe ff ff       	jmpq   400c70 <_init+0x28>

0000000000400dc0 <random@plt>:
  400dc0:	ff 25 f2 42 20 00    	jmpq   *0x2042f2(%rip)        # 6050b8 <_GLOBAL_OFFSET_TABLE_+0xb8>
  400dc6:	68 14 00 00 00       	pushq  $0x14
  400dcb:	e9 a0 fe ff ff       	jmpq   400c70 <_init+0x28>

0000000000400dd0 <_IO_getc@plt>:
  400dd0:	ff 25 ea 42 20 00    	jmpq   *0x2042ea(%rip)        # 6050c0 <_GLOBAL_OFFSET_TABLE_+0xc0>
  400dd6:	68 15 00 00 00       	pushq  $0x15
  400ddb:	e9 90 fe ff ff       	jmpq   400c70 <_init+0x28>

0000000000400de0 <__isoc99_sscanf@plt>:
  400de0:	ff 25 e2 42 20 00    	jmpq   *0x2042e2(%rip)        # 6050c8 <_GLOBAL_OFFSET_TABLE_+0xc8>
  400de6:	68 16 00 00 00       	pushq  $0x16
  400deb:	e9 80 fe ff ff       	jmpq   400c70 <_init+0x28>

0000000000400df0 <munmap@plt>:
  400df0:	ff 25 da 42 20 00    	jmpq   *0x2042da(%rip)        # 6050d0 <_GLOBAL_OFFSET_TABLE_+0xd0>
  400df6:	68 17 00 00 00       	pushq  $0x17
  400dfb:	e9 70 fe ff ff       	jmpq   400c70 <_init+0x28>

0000000000400e00 <__printf_chk@plt>:
  400e00:	ff 25 d2 42 20 00    	jmpq   *0x2042d2(%rip)        # 6050d8 <_GLOBAL_OFFSET_TABLE_+0xd8>
  400e06:	68 18 00 00 00       	pushq  $0x18
  400e0b:	e9 60 fe ff ff       	jmpq   400c70 <_init+0x28>

0000000000400e10 <fopen@plt>:
  400e10:	ff 25 ca 42 20 00    	jmpq   *0x2042ca(%rip)        # 6050e0 <_GLOBAL_OFFSET_TABLE_+0xe0>
  400e16:	68 19 00 00 00       	pushq  $0x19
  400e1b:	e9 50 fe ff ff       	jmpq   400c70 <_init+0x28>

0000000000400e20 <getopt@plt>:
  400e20:	ff 25 c2 42 20 00    	jmpq   *0x2042c2(%rip)        # 6050e8 <_GLOBAL_OFFSET_TABLE_+0xe8>
  400e26:	68 1a 00 00 00       	pushq  $0x1a
  400e2b:	e9 40 fe ff ff       	jmpq   400c70 <_init+0x28>

0000000000400e30 <strtoul@plt>:
  400e30:	ff 25 ba 42 20 00    	jmpq   *0x2042ba(%rip)        # 6050f0 <_GLOBAL_OFFSET_TABLE_+0xf0>
  400e36:	68 1b 00 00 00       	pushq  $0x1b
  400e3b:	e9 30 fe ff ff       	jmpq   400c70 <_init+0x28>

0000000000400e40 <gethostname@plt>:
  400e40:	ff 25 b2 42 20 00    	jmpq   *0x2042b2(%rip)        # 6050f8 <_GLOBAL_OFFSET_TABLE_+0xf8>
  400e46:	68 1c 00 00 00       	pushq  $0x1c
  400e4b:	e9 20 fe ff ff       	jmpq   400c70 <_init+0x28>

0000000000400e50 <exit@plt>:
  400e50:	ff 25 aa 42 20 00    	jmpq   *0x2042aa(%rip)        # 605100 <_GLOBAL_OFFSET_TABLE_+0x100>
  400e56:	68 1d 00 00 00       	pushq  $0x1d
  400e5b:	e9 10 fe ff ff       	jmpq   400c70 <_init+0x28>

0000000000400e60 <connect@plt>:
  400e60:	ff 25 a2 42 20 00    	jmpq   *0x2042a2(%rip)        # 605108 <_GLOBAL_OFFSET_TABLE_+0x108>
  400e66:	68 1e 00 00 00       	pushq  $0x1e
  400e6b:	e9 00 fe ff ff       	jmpq   400c70 <_init+0x28>

0000000000400e70 <__fprintf_chk@plt>:
  400e70:	ff 25 9a 42 20 00    	jmpq   *0x20429a(%rip)        # 605110 <_GLOBAL_OFFSET_TABLE_+0x110>
  400e76:	68 1f 00 00 00       	pushq  $0x1f
  400e7b:	e9 f0 fd ff ff       	jmpq   400c70 <_init+0x28>

0000000000400e80 <__sprintf_chk@plt>:
  400e80:	ff 25 92 42 20 00    	jmpq   *0x204292(%rip)        # 605118 <_GLOBAL_OFFSET_TABLE_+0x118>
  400e86:	68 20 00 00 00       	pushq  $0x20
  400e8b:	e9 e0 fd ff ff       	jmpq   400c70 <_init+0x28>

0000000000400e90 <socket@plt>:
  400e90:	ff 25 8a 42 20 00    	jmpq   *0x20428a(%rip)        # 605120 <_GLOBAL_OFFSET_TABLE_+0x120>
  400e96:	68 21 00 00 00       	pushq  $0x21
  400e9b:	e9 d0 fd ff ff       	jmpq   400c70 <_init+0x28>

Disassembly of section .plt.got:

0000000000400ea0 <.plt.got>:
  400ea0:	ff 25 52 41 20 00    	jmpq   *0x204152(%rip)        # 604ff8 <_DYNAMIC+0x1d0>
  400ea6:	66 90                	xchg   %ax,%ax

Disassembly of section .text:

0000000000400eb0 <_start>:
  400eb0:	31 ed                	xor    %ebp,%ebp
  400eb2:	49 89 d1             	mov    %rdx,%r9
  400eb5:	5e                   	pop    %rsi
  400eb6:	48 89 e2             	mov    %rsp,%rdx
  400eb9:	48 83 e4 f0          	and    $0xfffffffffffffff0,%rsp
  400ebd:	50                   	push   %rax
  400ebe:	54                   	push   %rsp
  400ebf:	49 c7 c0 30 2f 40 00 	mov    $0x402f30,%r8
  400ec6:	48 c7 c1 c0 2e 40 00 	mov    $0x402ec0,%rcx
  400ecd:	48 c7 c7 b5 11 40 00 	mov    $0x4011b5,%rdi
  400ed4:	e8 77 fe ff ff       	callq  400d50 <__libc_start_main@plt>
  400ed9:	f4                   	hlt    
  400eda:	66 0f 1f 44 00 00    	nopw   0x0(%rax,%rax,1)

0000000000400ee0 <deregister_tm_clones>:
  400ee0:	b8 b7 54 60 00       	mov    $0x6054b7,%eax
  400ee5:	55                   	push   %rbp
  400ee6:	48 2d b0 54 60 00    	sub    $0x6054b0,%rax
  400eec:	48 83 f8 0e          	cmp    $0xe,%rax
  400ef0:	48 89 e5             	mov    %rsp,%rbp
  400ef3:	76 1b                	jbe    400f10 <deregister_tm_clones+0x30>
  400ef5:	b8 00 00 00 00       	mov    $0x0,%eax
  400efa:	48 85 c0             	test   %rax,%rax
  400efd:	74 11                	je     400f10 <deregister_tm_clones+0x30>
  400eff:	5d                   	pop    %rbp
  400f00:	bf b0 54 60 00       	mov    $0x6054b0,%edi
  400f05:	ff e0                	jmpq   *%rax
  400f07:	66 0f 1f 84 00 00 00 	nopw   0x0(%rax,%rax,1)
  400f0e:	00 00 
  400f10:	5d                   	pop    %rbp
  400f11:	c3                   	retq   
  400f12:	0f 1f 40 00          	nopl   0x0(%rax)
  400f16:	66 2e 0f 1f 84 00 00 	nopw   %cs:0x0(%rax,%rax,1)
  400f1d:	00 00 00 

0000000000400f20 <register_tm_clones>:
  400f20:	be b0 54 60 00       	mov    $0x6054b0,%esi
  400f25:	55                   	push   %rbp
  400f26:	48 81 ee b0 54 60 00 	sub    $0x6054b0,%rsi
  400f2d:	48 c1 fe 03          	sar    $0x3,%rsi
  400f31:	48 89 e5             	mov    %rsp,%rbp
  400f34:	48 89 f0             	mov    %rsi,%rax
  400f37:	48 c1 e8 3f          	shr    $0x3f,%rax
  400f3b:	48 01 c6             	add    %rax,%rsi
  400f3e:	48 d1 fe             	sar    %rsi
  400f41:	74 15                	je     400f58 <register_tm_clones+0x38>
  400f43:	b8 00 00 00 00       	mov    $0x0,%eax
  400f48:	48 85 c0             	test   %rax,%rax
  400f4b:	74 0b                	je     400f58 <register_tm_clones+0x38>
  400f4d:	5d                   	pop    %rbp
  400f4e:	bf b0 54 60 00       	mov    $0x6054b0,%edi
  400f53:	ff e0                	jmpq   *%rax
  400f55:	0f 1f 00             	nopl   (%rax)
  400f58:	5d                   	pop    %rbp
  400f59:	c3                   	retq   
  400f5a:	66 0f 1f 44 00 00    	nopw   0x0(%rax,%rax,1)

0000000000400f60 <__do_global_dtors_aux>:
  400f60:	80 3d 81 45 20 00 00 	cmpb   $0x0,0x204581(%rip)        # 6054e8 <completed.7585>
  400f67:	75 11                	jne    400f7a <__do_global_dtors_aux+0x1a>
  400f69:	55                   	push   %rbp
  400f6a:	48 89 e5             	mov    %rsp,%rbp
  400f6d:	e8 6e ff ff ff       	callq  400ee0 <deregister_tm_clones>
  400f72:	5d                   	pop    %rbp
  400f73:	c6 05 6e 45 20 00 01 	movb   $0x1,0x20456e(%rip)        # 6054e8 <completed.7585>
  400f7a:	f3 c3                	repz retq 
  400f7c:	0f 1f 40 00          	nopl   0x0(%rax)

0000000000400f80 <frame_dummy>:
  400f80:	bf 20 4e 60 00       	mov    $0x604e20,%edi
  400f85:	48 83 3f 00          	cmpq   $0x0,(%rdi)
  400f89:	75 05                	jne    400f90 <frame_dummy+0x10>
  400f8b:	eb 93                	jmp    400f20 <register_tm_clones>
  400f8d:	0f 1f 00             	nopl   (%rax)
  400f90:	b8 00 00 00 00       	mov    $0x0,%eax
  400f95:	48 85 c0             	test   %rax,%rax
  400f98:	74 f1                	je     400f8b <frame_dummy+0xb>
  400f9a:	55                   	push   %rbp
  400f9b:	48 89 e5             	mov    %rsp,%rbp
  400f9e:	ff d0                	callq  *%rax
  400fa0:	5d                   	pop    %rbp
  400fa1:	e9 7a ff ff ff       	jmpq   400f20 <register_tm_clones>

0000000000400fa6 <usage>:
  400fa6:	48 83 ec 08          	sub    $0x8,%rsp
  400faa:	48 89 fa             	mov    %rdi,%rdx
  400fad:	83 3d 74 45 20 00 00 	cmpl   $0x0,0x204574(%rip)        # 605528 <is_checker>
  400fb4:	74 3e                	je     400ff4 <usage+0x4e>
  400fb6:	be 48 2f 40 00       	mov    $0x402f48,%esi
  400fbb:	bf 01 00 00 00       	mov    $0x1,%edi
  400fc0:	b8 00 00 00 00       	mov    $0x0,%eax
  400fc5:	e8 36 fe ff ff       	callq  400e00 <__printf_chk@plt>
  400fca:	bf 80 2f 40 00       	mov    $0x402f80,%edi
  400fcf:	e8 fc fc ff ff       	callq  400cd0 <puts@plt>
  400fd4:	bf f8 30 40 00       	mov    $0x4030f8,%edi
  400fd9:	e8 f2 fc ff ff       	callq  400cd0 <puts@plt>
  400fde:	bf a8 2f 40 00       	mov    $0x402fa8,%edi
  400fe3:	e8 e8 fc ff ff       	callq  400cd0 <puts@plt>
  400fe8:	bf 12 31 40 00       	mov    $0x403112,%edi
  400fed:	e8 de fc ff ff       	callq  400cd0 <puts@plt>
  400ff2:	eb 32                	jmp    401026 <usage+0x80>
  400ff4:	be 2e 31 40 00       	mov    $0x40312e,%esi
  400ff9:	bf 01 00 00 00       	mov    $0x1,%edi
  400ffe:	b8 00 00 00 00       	mov    $0x0,%eax
  401003:	e8 f8 fd ff ff       	callq  400e00 <__printf_chk@plt>
  401008:	bf d0 2f 40 00       	mov    $0x402fd0,%edi
  40100d:	e8 be fc ff ff       	callq  400cd0 <puts@plt>
  401012:	bf f8 2f 40 00       	mov    $0x402ff8,%edi
  401017:	e8 b4 fc ff ff       	callq  400cd0 <puts@plt>
  40101c:	bf 4c 31 40 00       	mov    $0x40314c,%edi
  401021:	e8 aa fc ff ff       	callq  400cd0 <puts@plt>
  401026:	bf 00 00 00 00       	mov    $0x0,%edi
  40102b:	e8 20 fe ff ff       	callq  400e50 <exit@plt>

0000000000401030 <initialize_target>:
  401030:	55                   	push   %rbp
  401031:	53                   	push   %rbx
  401032:	48 81 ec 18 21 00 00 	sub    $0x2118,%rsp
  401039:	89 f5                	mov    %esi,%ebp
  40103b:	64 48 8b 04 25 28 00 	mov    %fs:0x28,%rax
  401042:	00 00 
  401044:	48 89 84 24 08 21 00 	mov    %rax,0x2108(%rsp)
  40104b:	00 
  40104c:	31 c0                	xor    %eax,%eax
  40104e:	89 3d c4 44 20 00    	mov    %edi,0x2044c4(%rip)        # 605518 <check_level>
  401054:	8b 3d 0e 41 20 00    	mov    0x20410e(%rip),%edi        # 605168 <target_id>
  40105a:	e8 35 1e 00 00       	callq  402e94 <gencookie>
  40105f:	89 05 bf 44 20 00    	mov    %eax,0x2044bf(%rip)        # 605524 <cookie>
  401065:	89 c7                	mov    %eax,%edi
  401067:	e8 28 1e 00 00       	callq  402e94 <gencookie>
  40106c:	89 05 ae 44 20 00    	mov    %eax,0x2044ae(%rip)        # 605520 <authkey>
  401072:	8b 05 f0 40 20 00    	mov    0x2040f0(%rip),%eax        # 605168 <target_id>
  401078:	8d 78 01             	lea    0x1(%rax),%edi
  40107b:	e8 20 fc ff ff       	callq  400ca0 <srandom@plt>
  401080:	e8 3b fd ff ff       	callq  400dc0 <random@plt>
  401085:	89 c7                	mov    %eax,%edi
  401087:	e8 03 03 00 00       	callq  40138f <scramble>
  40108c:	89 c3                	mov    %eax,%ebx
  40108e:	85 ed                	test   %ebp,%ebp
  401090:	74 18                	je     4010aa <initialize_target+0x7a>
  401092:	bf 00 00 00 00       	mov    $0x0,%edi
  401097:	e8 14 fd ff ff       	callq  400db0 <time@plt>
  40109c:	89 c7                	mov    %eax,%edi
  40109e:	e8 fd fb ff ff       	callq  400ca0 <srandom@plt>
  4010a3:	e8 18 fd ff ff       	callq  400dc0 <random@plt>
  4010a8:	eb 05                	jmp    4010af <initialize_target+0x7f>
  4010aa:	b8 00 00 00 00       	mov    $0x0,%eax
  4010af:	01 c3                	add    %eax,%ebx
  4010b1:	0f b7 db             	movzwl %bx,%ebx
  4010b4:	8d 04 dd 00 01 00 00 	lea    0x100(,%rbx,8),%eax
  4010bb:	89 c0                	mov    %eax,%eax
  4010bd:	48 89 05 dc 43 20 00 	mov    %rax,0x2043dc(%rip)        # 6054a0 <buf_offset>
  4010c4:	c6 05 7d 50 20 00 63 	movb   $0x63,0x20507d(%rip)        # 606148 <target_prefix>
  4010cb:	83 3d d6 43 20 00 00 	cmpl   $0x0,0x2043d6(%rip)        # 6054a8 <notify>
  4010d2:	0f 84 bb 00 00 00    	je     401193 <initialize_target+0x163>
  4010d8:	83 3d 49 44 20 00 00 	cmpl   $0x0,0x204449(%rip)        # 605528 <is_checker>
  4010df:	0f 85 ae 00 00 00    	jne    401193 <initialize_target+0x163>
  4010e5:	be 00 01 00 00       	mov    $0x100,%esi
  4010ea:	48 89 e7             	mov    %rsp,%rdi
  4010ed:	e8 4e fd ff ff       	callq  400e40 <gethostname@plt>
  4010f2:	85 c0                	test   %eax,%eax
  4010f4:	74 25                	je     40111b <initialize_target+0xeb>
  4010f6:	bf 28 30 40 00       	mov    $0x403028,%edi
  4010fb:	e8 d0 fb ff ff       	callq  400cd0 <puts@plt>
  401100:	bf 08 00 00 00       	mov    $0x8,%edi
  401105:	e8 46 fd ff ff       	callq  400e50 <exit@plt>
  40110a:	48 89 e6             	mov    %rsp,%rsi
  40110d:	e8 6e fb ff ff       	callq  400c80 <strcasecmp@plt>
  401112:	85 c0                	test   %eax,%eax
  401114:	74 21                	je     401137 <initialize_target+0x107>
  401116:	83 c3 01             	add    $0x1,%ebx
  401119:	eb 05                	jmp    401120 <initialize_target+0xf0>
  40111b:	bb 00 00 00 00       	mov    $0x0,%ebx
  401120:	48 63 c3             	movslq %ebx,%rax
  401123:	48 8b 3c c5 80 51 60 	mov    0x605180(,%rax,8),%rdi
  40112a:	00 
  40112b:	48 85 ff             	test   %rdi,%rdi
  40112e:	75 da                	jne    40110a <initialize_target+0xda>
  401130:	b8 00 00 00 00       	mov    $0x0,%eax
  401135:	eb 05                	jmp    40113c <initialize_target+0x10c>
  401137:	b8 01 00 00 00       	mov    $0x1,%eax
  40113c:	85 c0                	test   %eax,%eax
  40113e:	75 1c                	jne    40115c <initialize_target+0x12c>
  401140:	48 89 e2             	mov    %rsp,%rdx
  401143:	be 60 30 40 00       	mov    $0x403060,%esi
  401148:	bf 01 00 00 00       	mov    $0x1,%edi
  40114d:	e8 ae fc ff ff       	callq  400e00 <__printf_chk@plt>
  401152:	bf 08 00 00 00       	mov    $0x8,%edi
  401157:	e8 f4 fc ff ff       	callq  400e50 <exit@plt>
  40115c:	48 8d bc 24 00 01 00 	lea    0x100(%rsp),%rdi
  401163:	00 
  401164:	e8 95 1a 00 00       	callq  402bfe <init_driver>
  401169:	85 c0                	test   %eax,%eax
  40116b:	79 26                	jns    401193 <initialize_target+0x163>
  40116d:	48 8d 94 24 00 01 00 	lea    0x100(%rsp),%rdx
  401174:	00 
  401175:	be a0 30 40 00       	mov    $0x4030a0,%esi
  40117a:	bf 01 00 00 00       	mov    $0x1,%edi
  40117f:	b8 00 00 00 00       	mov    $0x0,%eax
  401184:	e8 77 fc ff ff       	callq  400e00 <__printf_chk@plt>
  401189:	bf 08 00 00 00       	mov    $0x8,%edi
  40118e:	e8 bd fc ff ff       	callq  400e50 <exit@plt>
  401193:	48 8b 84 24 08 21 00 	mov    0x2108(%rsp),%rax
  40119a:	00 
  40119b:	64 48 33 04 25 28 00 	xor    %fs:0x28,%rax
  4011a2:	00 00 
  4011a4:	74 05                	je     4011ab <initialize_target+0x17b>
  4011a6:	e8 45 fb ff ff       	callq  400cf0 <__stack_chk_fail@plt>
  4011ab:	48 81 c4 18 21 00 00 	add    $0x2118,%rsp
  4011b2:	5b                   	pop    %rbx
  4011b3:	5d                   	pop    %rbp
  4011b4:	c3                   	retq   

00000000004011b5 <main>:
  4011b5:	41 56                	push   %r14
  4011b7:	41 55                	push   %r13
  4011b9:	41 54                	push   %r12
  4011bb:	55                   	push   %rbp
  4011bc:	53                   	push   %rbx
  4011bd:	41 89 fc             	mov    %edi,%r12d
  4011c0:	48 89 f3             	mov    %rsi,%rbx
  4011c3:	be 39 1f 40 00       	mov    $0x401f39,%esi
  4011c8:	bf 0b 00 00 00       	mov    $0xb,%edi
  4011cd:	e8 8e fb ff ff       	callq  400d60 <signal@plt>
  4011d2:	be eb 1e 40 00       	mov    $0x401eeb,%esi
  4011d7:	bf 07 00 00 00       	mov    $0x7,%edi
  4011dc:	e8 7f fb ff ff       	callq  400d60 <signal@plt>
  4011e1:	be 87 1f 40 00       	mov    $0x401f87,%esi
  4011e6:	bf 04 00 00 00       	mov    $0x4,%edi
  4011eb:	e8 70 fb ff ff       	callq  400d60 <signal@plt>
  4011f0:	83 3d 31 43 20 00 00 	cmpl   $0x0,0x204331(%rip)        # 605528 <is_checker>
  4011f7:	74 20                	je     401219 <main+0x64>
  4011f9:	be d5 1f 40 00       	mov    $0x401fd5,%esi
  4011fe:	bf 0e 00 00 00       	mov    $0xe,%edi
  401203:	e8 58 fb ff ff       	callq  400d60 <signal@plt>
  401208:	bf 05 00 00 00       	mov    $0x5,%edi
  40120d:	e8 0e fb ff ff       	callq  400d20 <alarm@plt>
  401212:	bd 6a 31 40 00       	mov    $0x40316a,%ebp
  401217:	eb 05                	jmp    40121e <main+0x69>
  401219:	bd 65 31 40 00       	mov    $0x403165,%ebp
  40121e:	48 8b 05 9b 42 20 00 	mov    0x20429b(%rip),%rax        # 6054c0 <stdin@@GLIBC_2.2.5>
  401225:	48 89 05 e4 42 20 00 	mov    %rax,0x2042e4(%rip)        # 605510 <infile>
  40122c:	41 bd 00 00 00 00    	mov    $0x0,%r13d
  401232:	41 be 00 00 00 00    	mov    $0x0,%r14d
  401238:	e9 c6 00 00 00       	jmpq   401303 <main+0x14e>
  40123d:	83 e8 61             	sub    $0x61,%eax
  401240:	3c 10                	cmp    $0x10,%al
  401242:	0f 87 9c 00 00 00    	ja     4012e4 <main+0x12f>
  401248:	0f b6 c0             	movzbl %al,%eax
  40124b:	ff 24 c5 b0 31 40 00 	jmpq   *0x4031b0(,%rax,8)
  401252:	48 8b 3b             	mov    (%rbx),%rdi
  401255:	e8 4c fd ff ff       	callq  400fa6 <usage>
  40125a:	be 75 34 40 00       	mov    $0x403475,%esi
  40125f:	48 8b 3d 62 42 20 00 	mov    0x204262(%rip),%rdi        # 6054c8 <optarg@@GLIBC_2.2.5>
  401266:	e8 a5 fb ff ff       	callq  400e10 <fopen@plt>
  40126b:	48 89 05 9e 42 20 00 	mov    %rax,0x20429e(%rip)        # 605510 <infile>
  401272:	48 85 c0             	test   %rax,%rax
  401275:	0f 85 88 00 00 00    	jne    401303 <main+0x14e>
  40127b:	48 8b 0d 46 42 20 00 	mov    0x204246(%rip),%rcx        # 6054c8 <optarg@@GLIBC_2.2.5>
  401282:	ba 72 31 40 00       	mov    $0x403172,%edx
  401287:	be 01 00 00 00       	mov    $0x1,%esi
  40128c:	48 8b 3d 4d 42 20 00 	mov    0x20424d(%rip),%rdi        # 6054e0 <stderr@@GLIBC_2.2.5>
  401293:	e8 d8 fb ff ff       	callq  400e70 <__fprintf_chk@plt>
  401298:	b8 01 00 00 00       	mov    $0x1,%eax
  40129d:	e9 e4 00 00 00       	jmpq   401386 <main+0x1d1>
  4012a2:	ba 10 00 00 00       	mov    $0x10,%edx
  4012a7:	be 00 00 00 00       	mov    $0x0,%esi
  4012ac:	48 8b 3d 15 42 20 00 	mov    0x204215(%rip),%rdi        # 6054c8 <optarg@@GLIBC_2.2.5>
  4012b3:	e8 78 fb ff ff       	callq  400e30 <strtoul@plt>
  4012b8:	41 89 c6             	mov    %eax,%r14d
  4012bb:	eb 46                	jmp    401303 <main+0x14e>
  4012bd:	ba 0a 00 00 00       	mov    $0xa,%edx
  4012c2:	be 00 00 00 00       	mov    $0x0,%esi
  4012c7:	48 8b 3d fa 41 20 00 	mov    0x2041fa(%rip),%rdi        # 6054c8 <optarg@@GLIBC_2.2.5>
  4012ce:	e8 bd fa ff ff       	callq  400d90 <strtol@plt>
  4012d3:	41 89 c5             	mov    %eax,%r13d
  4012d6:	eb 2b                	jmp    401303 <main+0x14e>
  4012d8:	c7 05 c6 41 20 00 00 	movl   $0x0,0x2041c6(%rip)        # 6054a8 <notify>
  4012df:	00 00 00 
  4012e2:	eb 1f                	jmp    401303 <main+0x14e>
  4012e4:	0f be d2             	movsbl %dl,%edx
  4012e7:	be 8f 31 40 00       	mov    $0x40318f,%esi
  4012ec:	bf 01 00 00 00       	mov    $0x1,%edi
  4012f1:	b8 00 00 00 00       	mov    $0x0,%eax
  4012f6:	e8 05 fb ff ff       	callq  400e00 <__printf_chk@plt>
  4012fb:	48 8b 3b             	mov    (%rbx),%rdi
  4012fe:	e8 a3 fc ff ff       	callq  400fa6 <usage>
  401303:	48 89 ea             	mov    %rbp,%rdx
  401306:	48 89 de             	mov    %rbx,%rsi
  401309:	44 89 e7             	mov    %r12d,%edi
  40130c:	e8 0f fb ff ff       	callq  400e20 <getopt@plt>
  401311:	89 c2                	mov    %eax,%edx
  401313:	3c ff                	cmp    $0xff,%al
  401315:	0f 85 22 ff ff ff    	jne    40123d <main+0x88>
  40131b:	be 00 00 00 00       	mov    $0x0,%esi
  401320:	44 89 ef             	mov    %r13d,%edi
  401323:	e8 08 fd ff ff       	callq  401030 <initialize_target>
  401328:	83 3d f9 41 20 00 00 	cmpl   $0x0,0x2041f9(%rip)        # 605528 <is_checker>
  40132f:	74 2a                	je     40135b <main+0x1a6>
  401331:	44 3b 35 e8 41 20 00 	cmp    0x2041e8(%rip),%r14d        # 605520 <authkey>
  401338:	74 21                	je     40135b <main+0x1a6>
  40133a:	44 89 f2             	mov    %r14d,%edx
  40133d:	be c8 30 40 00       	mov    $0x4030c8,%esi
  401342:	bf 01 00 00 00       	mov    $0x1,%edi
  401347:	b8 00 00 00 00       	mov    $0x0,%eax
  40134c:	e8 af fa ff ff       	callq  400e00 <__printf_chk@plt>
  401351:	b8 00 00 00 00       	mov    $0x0,%eax
  401356:	e8 2c 08 00 00       	callq  401b87 <check_fail>
  40135b:	8b 15 c3 41 20 00    	mov    0x2041c3(%rip),%edx        # 605524 <cookie>
  401361:	be a2 31 40 00       	mov    $0x4031a2,%esi
  401366:	bf 01 00 00 00       	mov    $0x1,%edi
  40136b:	b8 00 00 00 00       	mov    $0x0,%eax
  401370:	e8 8b fa ff ff       	callq  400e00 <__printf_chk@plt>
  401375:	48 8b 3d 24 41 20 00 	mov    0x204124(%rip),%rdi        # 6054a0 <buf_offset>
  40137c:	e8 54 0d 00 00       	callq  4020d5 <stable_launch>
  401381:	b8 00 00 00 00       	mov    $0x0,%eax
  401386:	5b                   	pop    %rbx
  401387:	5d                   	pop    %rbp
  401388:	41 5c                	pop    %r12
  40138a:	41 5d                	pop    %r13
  40138c:	41 5e                	pop    %r14
  40138e:	c3                   	retq   

000000000040138f <scramble>:
  40138f:	48 83 ec 38          	sub    $0x38,%rsp
  401393:	64 48 8b 04 25 28 00 	mov    %fs:0x28,%rax
  40139a:	00 00 
  40139c:	48 89 44 24 28       	mov    %rax,0x28(%rsp)
  4013a1:	31 c0                	xor    %eax,%eax
  4013a3:	eb 10                	jmp    4013b5 <scramble+0x26>
  4013a5:	69 d0 43 e2 00 00    	imul   $0xe243,%eax,%edx
  4013ab:	01 fa                	add    %edi,%edx
  4013ad:	89 c1                	mov    %eax,%ecx
  4013af:	89 14 8c             	mov    %edx,(%rsp,%rcx,4)
  4013b2:	83 c0 01             	add    $0x1,%eax
  4013b5:	83 f8 09             	cmp    $0x9,%eax
  4013b8:	76 eb                	jbe    4013a5 <scramble+0x16>
  4013ba:	8b 44 24 04          	mov    0x4(%rsp),%eax
  4013be:	69 c0 3b 07 00 00    	imul   $0x73b,%eax,%eax
  4013c4:	89 44 24 04          	mov    %eax,0x4(%rsp)
  4013c8:	8b 44 24 0c          	mov    0xc(%rsp),%eax
  4013cc:	69 c0 6d 1a 00 00    	imul   $0x1a6d,%eax,%eax
  4013d2:	89 44 24 0c          	mov    %eax,0xc(%rsp)
  4013d6:	8b 44 24 1c          	mov    0x1c(%rsp),%eax
  4013da:	69 c0 7a 3b 00 00    	imul   $0x3b7a,%eax,%eax
  4013e0:	89 44 24 1c          	mov    %eax,0x1c(%rsp)
  4013e4:	8b 44 24 0c          	mov    0xc(%rsp),%eax
  4013e8:	69 c0 50 17 00 00    	imul   $0x1750,%eax,%eax
  4013ee:	89 44 24 0c          	mov    %eax,0xc(%rsp)
  4013f2:	8b 44 24 04          	mov    0x4(%rsp),%eax
  4013f6:	69 c0 73 86 00 00    	imul   $0x8673,%eax,%eax
  4013fc:	89 44 24 04          	mov    %eax,0x4(%rsp)
  401400:	8b 44 24 18          	mov    0x18(%rsp),%eax
  401404:	69 c0 e3 0f 00 00    	imul   $0xfe3,%eax,%eax
  40140a:	89 44 24 18          	mov    %eax,0x18(%rsp)
  40140e:	8b 04 24             	mov    (%rsp),%eax
  401411:	69 c0 a9 d9 00 00    	imul   $0xd9a9,%eax,%eax
  401417:	89 04 24             	mov    %eax,(%rsp)
  40141a:	8b 44 24 18          	mov    0x18(%rsp),%eax
  40141e:	69 c0 f2 a5 00 00    	imul   $0xa5f2,%eax,%eax
  401424:	89 44 24 18          	mov    %eax,0x18(%rsp)
  401428:	8b 44 24 18          	mov    0x18(%rsp),%eax
  40142c:	69 c0 72 0c 00 00    	imul   $0xc72,%eax,%eax
  401432:	89 44 24 18          	mov    %eax,0x18(%rsp)
  401436:	8b 44 24 0c          	mov    0xc(%rsp),%eax
  40143a:	69 c0 78 97 00 00    	imul   $0x9778,%eax,%eax
  401440:	89 44 24 0c          	mov    %eax,0xc(%rsp)
  401444:	8b 44 24 10          	mov    0x10(%rsp),%eax
  401448:	69 c0 7c a8 00 00    	imul   $0xa87c,%eax,%eax
  40144e:	89 44 24 10          	mov    %eax,0x10(%rsp)
  401452:	8b 44 24 10          	mov    0x10(%rsp),%eax
  401456:	69 c0 cd 18 00 00    	imul   $0x18cd,%eax,%eax
  40145c:	89 44 24 10          	mov    %eax,0x10(%rsp)
  401460:	8b 44 24 08          	mov    0x8(%rsp),%eax
  401464:	69 c0 01 9e 00 00    	imul   $0x9e01,%eax,%eax
  40146a:	89 44 24 08          	mov    %eax,0x8(%rsp)
  40146e:	8b 04 24             	mov    (%rsp),%eax
  401471:	69 c0 c1 20 00 00    	imul   $0x20c1,%eax,%eax
  401477:	89 04 24             	mov    %eax,(%rsp)
  40147a:	8b 44 24 10          	mov    0x10(%rsp),%eax
  40147e:	69 c0 4d 25 00 00    	imul   $0x254d,%eax,%eax
  401484:	89 44 24 10          	mov    %eax,0x10(%rsp)
  401488:	8b 44 24 08          	mov    0x8(%rsp),%eax
  40148c:	69 c0 b2 85 00 00    	imul   $0x85b2,%eax,%eax
  401492:	89 44 24 08          	mov    %eax,0x8(%rsp)
  401496:	8b 44 24 14          	mov    0x14(%rsp),%eax
  40149a:	69 c0 66 9d 00 00    	imul   $0x9d66,%eax,%eax
  4014a0:	89 44 24 14          	mov    %eax,0x14(%rsp)
  4014a4:	8b 44 24 10          	mov    0x10(%rsp),%eax
  4014a8:	69 c0 a3 bf 00 00    	imul   $0xbfa3,%eax,%eax
  4014ae:	89 44 24 10          	mov    %eax,0x10(%rsp)
  4014b2:	8b 44 24 20          	mov    0x20(%rsp),%eax
  4014b6:	69 c0 b1 fb 00 00    	imul   $0xfbb1,%eax,%eax
  4014bc:	89 44 24 20          	mov    %eax,0x20(%rsp)
  4014c0:	8b 04 24             	mov    (%rsp),%eax
  4014c3:	69 c0 19 63 00 00    	imul   $0x6319,%eax,%eax
  4014c9:	89 04 24             	mov    %eax,(%rsp)
  4014cc:	8b 04 24             	mov    (%rsp),%eax
  4014cf:	69 c0 dd 72 00 00    	imul   $0x72dd,%eax,%eax
  4014d5:	89 04 24             	mov    %eax,(%rsp)
  4014d8:	8b 44 24 1c          	mov    0x1c(%rsp),%eax
  4014dc:	69 c0 0a 8c 00 00    	imul   $0x8c0a,%eax,%eax
  4014e2:	89 44 24 1c          	mov    %eax,0x1c(%rsp)
  4014e6:	8b 44 24 1c          	mov    0x1c(%rsp),%eax
  4014ea:	69 c0 b4 14 00 00    	imul   $0x14b4,%eax,%eax
  4014f0:	89 44 24 1c          	mov    %eax,0x1c(%rsp)
  4014f4:	8b 44 24 08          	mov    0x8(%rsp),%eax
  4014f8:	69 c0 09 16 00 00    	imul   $0x1609,%eax,%eax
  4014fe:	89 44 24 08          	mov    %eax,0x8(%rsp)
  401502:	8b 44 24 04          	mov    0x4(%rsp),%eax
  401506:	69 c0 5d 0b 00 00    	imul   $0xb5d,%eax,%eax
  40150c:	89 44 24 04          	mov    %eax,0x4(%rsp)
  401510:	8b 44 24 04          	mov    0x4(%rsp),%eax
  401514:	69 c0 2a 4a 00 00    	imul   $0x4a2a,%eax,%eax
  40151a:	89 44 24 04          	mov    %eax,0x4(%rsp)
  40151e:	8b 44 24 14          	mov    0x14(%rsp),%eax
  401522:	69 c0 69 13 00 00    	imul   $0x1369,%eax,%eax
  401528:	89 44 24 14          	mov    %eax,0x14(%rsp)
  40152c:	8b 44 24 18          	mov    0x18(%rsp),%eax
  401530:	69 c0 a5 46 00 00    	imul   $0x46a5,%eax,%eax
  401536:	89 44 24 18          	mov    %eax,0x18(%rsp)
  40153a:	8b 44 24 14          	mov    0x14(%rsp),%eax
  40153e:	69 c0 68 2c 00 00    	imul   $0x2c68,%eax,%eax
  401544:	89 44 24 14          	mov    %eax,0x14(%rsp)
  401548:	8b 44 24 0c          	mov    0xc(%rsp),%eax
  40154c:	69 c0 d8 54 00 00    	imul   $0x54d8,%eax,%eax
  401552:	89 44 24 0c          	mov    %eax,0xc(%rsp)
  401556:	8b 44 24 20          	mov    0x20(%rsp),%eax
  40155a:	69 c0 1d 68 00 00    	imul   $0x681d,%eax,%eax
  401560:	89 44 24 20          	mov    %eax,0x20(%rsp)
  401564:	8b 44 24 1c          	mov    0x1c(%rsp),%eax
  401568:	69 c0 3e 7e 00 00    	imul   $0x7e3e,%eax,%eax
  40156e:	89 44 24 1c          	mov    %eax,0x1c(%rsp)
  401572:	8b 44 24 14          	mov    0x14(%rsp),%eax
  401576:	69 c0 aa 7a 00 00    	imul   $0x7aaa,%eax,%eax
  40157c:	89 44 24 14          	mov    %eax,0x14(%rsp)
  401580:	8b 44 24 04          	mov    0x4(%rsp),%eax
  401584:	69 c0 63 de 00 00    	imul   $0xde63,%eax,%eax
  40158a:	89 44 24 04          	mov    %eax,0x4(%rsp)
  40158e:	8b 44 24 0c          	mov    0xc(%rsp),%eax
  401592:	69 c0 d5 14 00 00    	imul   $0x14d5,%eax,%eax
  401598:	89 44 24 0c          	mov    %eax,0xc(%rsp)
  40159c:	8b 44 24 1c          	mov    0x1c(%rsp),%eax
  4015a0:	69 c0 7f f8 00 00    	imul   $0xf87f,%eax,%eax
  4015a6:	89 44 24 1c          	mov    %eax,0x1c(%rsp)
  4015aa:	8b 44 24 04          	mov    0x4(%rsp),%eax
  4015ae:	69 c0 79 b4 00 00    	imul   $0xb479,%eax,%eax
  4015b4:	89 44 24 04          	mov    %eax,0x4(%rsp)
  4015b8:	8b 44 24 18          	mov    0x18(%rsp),%eax
  4015bc:	69 c0 3a d4 00 00    	imul   $0xd43a,%eax,%eax
  4015c2:	89 44 24 18          	mov    %eax,0x18(%rsp)
  4015c6:	8b 44 24 04          	mov    0x4(%rsp),%eax
  4015ca:	69 c0 86 b6 00 00    	imul   $0xb686,%eax,%eax
  4015d0:	89 44 24 04          	mov    %eax,0x4(%rsp)
  4015d4:	8b 44 24 0c          	mov    0xc(%rsp),%eax
  4015d8:	69 c0 54 ea 00 00    	imul   $0xea54,%eax,%eax
  4015de:	89 44 24 0c          	mov    %eax,0xc(%rsp)
  4015e2:	8b 44 24 18          	mov    0x18(%rsp),%eax
  4015e6:	69 c0 c4 97 00 00    	imul   $0x97c4,%eax,%eax
  4015ec:	89 44 24 18          	mov    %eax,0x18(%rsp)
  4015f0:	8b 44 24 24          	mov    0x24(%rsp),%eax
  4015f4:	69 c0 bc 75 00 00    	imul   $0x75bc,%eax,%eax
  4015fa:	89 44 24 24          	mov    %eax,0x24(%rsp)
  4015fe:	8b 44 24 18          	mov    0x18(%rsp),%eax
  401602:	69 c0 76 97 00 00    	imul   $0x9776,%eax,%eax
  401608:	89 44 24 18          	mov    %eax,0x18(%rsp)
  40160c:	8b 44 24 10          	mov    0x10(%rsp),%eax
  401610:	69 c0 97 5c 00 00    	imul   $0x5c97,%eax,%eax
  401616:	89 44 24 10          	mov    %eax,0x10(%rsp)
  40161a:	8b 44 24 14          	mov    0x14(%rsp),%eax
  40161e:	69 c0 c9 23 00 00    	imul   $0x23c9,%eax,%eax
  401624:	89 44 24 14          	mov    %eax,0x14(%rsp)
  401628:	8b 44 24 08          	mov    0x8(%rsp),%eax
  40162c:	69 c0 93 15 00 00    	imul   $0x1593,%eax,%eax
  401632:	89 44 24 08          	mov    %eax,0x8(%rsp)
  401636:	8b 44 24 1c          	mov    0x1c(%rsp),%eax
  40163a:	69 c0 fa 8b 00 00    	imul   $0x8bfa,%eax,%eax
  401640:	89 44 24 1c          	mov    %eax,0x1c(%rsp)
  401644:	8b 44 24 10          	mov    0x10(%rsp),%eax
  401648:	69 c0 6a 91 00 00    	imul   $0x916a,%eax,%eax
  40164e:	89 44 24 10          	mov    %eax,0x10(%rsp)
  401652:	8b 44 24 0c          	mov    0xc(%rsp),%eax
  401656:	69 c0 b3 d1 00 00    	imul   $0xd1b3,%eax,%eax
  40165c:	89 44 24 0c          	mov    %eax,0xc(%rsp)
  401660:	8b 04 24             	mov    (%rsp),%eax
  401663:	69 c0 ff 7c 00 00    	imul   $0x7cff,%eax,%eax
  401669:	89 04 24             	mov    %eax,(%rsp)
  40166c:	8b 04 24             	mov    (%rsp),%eax
  40166f:	69 c0 4a b1 00 00    	imul   $0xb14a,%eax,%eax
  401675:	89 04 24             	mov    %eax,(%rsp)
  401678:	8b 44 24 08          	mov    0x8(%rsp),%eax
  40167c:	69 c0 3b 6e 00 00    	imul   $0x6e3b,%eax,%eax
  401682:	89 44 24 08          	mov    %eax,0x8(%rsp)
  401686:	8b 44 24 0c          	mov    0xc(%rsp),%eax
  40168a:	69 c0 07 fa 00 00    	imul   $0xfa07,%eax,%eax
  401690:	89 44 24 0c          	mov    %eax,0xc(%rsp)
  401694:	8b 44 24 10          	mov    0x10(%rsp),%eax
  401698:	69 c0 f2 2e 00 00    	imul   $0x2ef2,%eax,%eax
  40169e:	89 44 24 10          	mov    %eax,0x10(%rsp)
  4016a2:	8b 44 24 20          	mov    0x20(%rsp),%eax
  4016a6:	69 c0 b8 2c 00 00    	imul   $0x2cb8,%eax,%eax
  4016ac:	89 44 24 20          	mov    %eax,0x20(%rsp)
  4016b0:	8b 04 24             	mov    (%rsp),%eax
  4016b3:	69 c0 71 72 00 00    	imul   $0x7271,%eax,%eax
  4016b9:	89 04 24             	mov    %eax,(%rsp)
  4016bc:	8b 44 24 20          	mov    0x20(%rsp),%eax
  4016c0:	69 c0 c5 4d 00 00    	imul   $0x4dc5,%eax,%eax
  4016c6:	89 44 24 20          	mov    %eax,0x20(%rsp)
  4016ca:	8b 44 24 24          	mov    0x24(%rsp),%eax
  4016ce:	69 c0 a9 6f 00 00    	imul   $0x6fa9,%eax,%eax
  4016d4:	89 44 24 24          	mov    %eax,0x24(%rsp)
  4016d8:	8b 04 24             	mov    (%rsp),%eax
  4016db:	69 c0 90 a4 00 00    	imul   $0xa490,%eax,%eax
  4016e1:	89 04 24             	mov    %eax,(%rsp)
  4016e4:	8b 44 24 14          	mov    0x14(%rsp),%eax
  4016e8:	69 c0 19 a9 00 00    	imul   $0xa919,%eax,%eax
  4016ee:	89 44 24 14          	mov    %eax,0x14(%rsp)
  4016f2:	8b 44 24 08          	mov    0x8(%rsp),%eax
  4016f6:	69 c0 b0 7d 00 00    	imul   $0x7db0,%eax,%eax
  4016fc:	89 44 24 08          	mov    %eax,0x8(%rsp)
  401700:	8b 44 24 10          	mov    0x10(%rsp),%eax
  401704:	69 c0 3f 54 00 00    	imul   $0x543f,%eax,%eax
  40170a:	89 44 24 10          	mov    %eax,0x10(%rsp)
  40170e:	8b 44 24 24          	mov    0x24(%rsp),%eax
  401712:	69 c0 7e 52 00 00    	imul   $0x527e,%eax,%eax
  401718:	89 44 24 24          	mov    %eax,0x24(%rsp)
  40171c:	8b 44 24 14          	mov    0x14(%rsp),%eax
  401720:	69 c0 4e 10 00 00    	imul   $0x104e,%eax,%eax
  401726:	89 44 24 14          	mov    %eax,0x14(%rsp)
  40172a:	8b 44 24 1c          	mov    0x1c(%rsp),%eax
  40172e:	69 c0 77 55 00 00    	imul   $0x5577,%eax,%eax
  401734:	89 44 24 1c          	mov    %eax,0x1c(%rsp)
  401738:	8b 44 24 0c          	mov    0xc(%rsp),%eax
  40173c:	69 c0 b9 0a 00 00    	imul   $0xab9,%eax,%eax
  401742:	89 44 24 0c          	mov    %eax,0xc(%rsp)
  401746:	8b 44 24 14          	mov    0x14(%rsp),%eax
  40174a:	69 c0 cb 02 00 00    	imul   $0x2cb,%eax,%eax
  401750:	89 44 24 14          	mov    %eax,0x14(%rsp)
  401754:	8b 44 24 10          	mov    0x10(%rsp),%eax
  401758:	69 c0 85 6c 00 00    	imul   $0x6c85,%eax,%eax
  40175e:	89 44 24 10          	mov    %eax,0x10(%rsp)
  401762:	8b 44 24 14          	mov    0x14(%rsp),%eax
  401766:	69 c0 6a bb 00 00    	imul   $0xbb6a,%eax,%eax
  40176c:	89 44 24 14          	mov    %eax,0x14(%rsp)
  401770:	8b 44 24 24          	mov    0x24(%rsp),%eax
  401774:	69 c0 60 ad 00 00    	imul   $0xad60,%eax,%eax
  40177a:	89 44 24 24          	mov    %eax,0x24(%rsp)
  40177e:	8b 04 24             	mov    (%rsp),%eax
  401781:	69 c0 be b4 00 00    	imul   $0xb4be,%eax,%eax
  401787:	89 04 24             	mov    %eax,(%rsp)
  40178a:	8b 44 24 04          	mov    0x4(%rsp),%eax
  40178e:	69 c0 9f ac 00 00    	imul   $0xac9f,%eax,%eax
  401794:	89 44 24 04          	mov    %eax,0x4(%rsp)
  401798:	8b 44 24 0c          	mov    0xc(%rsp),%eax
  40179c:	c1 e0 0b             	shl    $0xb,%eax
  40179f:	89 44 24 0c          	mov    %eax,0xc(%rsp)
  4017a3:	8b 44 24 18          	mov    0x18(%rsp),%eax
  4017a7:	69 c0 be e7 00 00    	imul   $0xe7be,%eax,%eax
  4017ad:	89 44 24 18          	mov    %eax,0x18(%rsp)
  4017b1:	8b 44 24 1c          	mov    0x1c(%rsp),%eax
  4017b5:	69 c0 89 e8 00 00    	imul   $0xe889,%eax,%eax
  4017bb:	89 44 24 1c          	mov    %eax,0x1c(%rsp)
  4017bf:	8b 44 24 04          	mov    0x4(%rsp),%eax
  4017c3:	69 c0 e9 74 00 00    	imul   $0x74e9,%eax,%eax
  4017c9:	89 44 24 04          	mov    %eax,0x4(%rsp)
  4017cd:	8b 44 24 08          	mov    0x8(%rsp),%eax
  4017d1:	69 c0 83 4f 00 00    	imul   $0x4f83,%eax,%eax
  4017d7:	89 44 24 08          	mov    %eax,0x8(%rsp)
  4017db:	8b 44 24 0c          	mov    0xc(%rsp),%eax
  4017df:	69 c0 e3 6f 00 00    	imul   $0x6fe3,%eax,%eax
  4017e5:	89 44 24 0c          	mov    %eax,0xc(%rsp)
  4017e9:	8b 44 24 1c          	mov    0x1c(%rsp),%eax
  4017ed:	69 c0 d2 ae 00 00    	imul   $0xaed2,%eax,%eax
  4017f3:	89 44 24 1c          	mov    %eax,0x1c(%rsp)
  4017f7:	8b 44 24 24          	mov    0x24(%rsp),%eax
  4017fb:	69 c0 32 c6 00 00    	imul   $0xc632,%eax,%eax
  401801:	89 44 24 24          	mov    %eax,0x24(%rsp)
  401805:	8b 44 24 18          	mov    0x18(%rsp),%eax
  401809:	69 c0 7e 0d 00 00    	imul   $0xd7e,%eax,%eax
  40180f:	89 44 24 18          	mov    %eax,0x18(%rsp)
  401813:	8b 44 24 14          	mov    0x14(%rsp),%eax
  401817:	69 c0 0a 0b 00 00    	imul   $0xb0a,%eax,%eax
  40181d:	89 44 24 14          	mov    %eax,0x14(%rsp)
  401821:	8b 04 24             	mov    (%rsp),%eax
  401824:	69 c0 e1 49 00 00    	imul   $0x49e1,%eax,%eax
  40182a:	89 04 24             	mov    %eax,(%rsp)
  40182d:	8b 44 24 0c          	mov    0xc(%rsp),%eax
  401831:	69 c0 1c 0d 00 00    	imul   $0xd1c,%eax,%eax
  401837:	89 44 24 0c          	mov    %eax,0xc(%rsp)
  40183b:	8b 04 24             	mov    (%rsp),%eax
  40183e:	69 c0 07 13 00 00    	imul   $0x1307,%eax,%eax
  401844:	89 04 24             	mov    %eax,(%rsp)
  401847:	8b 44 24 04          	mov    0x4(%rsp),%eax
  40184b:	69 c0 6e ed 00 00    	imul   $0xed6e,%eax,%eax
  401851:	89 44 24 04          	mov    %eax,0x4(%rsp)
  401855:	8b 44 24 10          	mov    0x10(%rsp),%eax
  401859:	69 c0 4e da 00 00    	imul   $0xda4e,%eax,%eax
  40185f:	89 44 24 10          	mov    %eax,0x10(%rsp)
  401863:	8b 44 24 08          	mov    0x8(%rsp),%eax
  401867:	69 c0 48 ca 00 00    	imul   $0xca48,%eax,%eax
  40186d:	89 44 24 08          	mov    %eax,0x8(%rsp)
  401871:	8b 44 24 18          	mov    0x18(%rsp),%eax
  401875:	69 c0 57 b6 00 00    	imul   $0xb657,%eax,%eax
  40187b:	89 44 24 18          	mov    %eax,0x18(%rsp)
  40187f:	8b 44 24 10          	mov    0x10(%rsp),%eax
  401883:	69 c0 de 8e 00 00    	imul   $0x8ede,%eax,%eax
  401889:	89 44 24 10          	mov    %eax,0x10(%rsp)
  40188d:	8b 44 24 04          	mov    0x4(%rsp),%eax
  401891:	69 c0 dd 42 00 00    	imul   $0x42dd,%eax,%eax
  401897:	89 44 24 04          	mov    %eax,0x4(%rsp)
  40189b:	8b 44 24 1c          	mov    0x1c(%rsp),%eax
  40189f:	69 c0 1a 05 00 00    	imul   $0x51a,%eax,%eax
  4018a5:	89 44 24 1c          	mov    %eax,0x1c(%rsp)
  4018a9:	8b 44 24 14          	mov    0x14(%rsp),%eax
  4018ad:	69 c0 f0 cc 00 00    	imul   $0xccf0,%eax,%eax
  4018b3:	89 44 24 14          	mov    %eax,0x14(%rsp)
  4018b7:	8b 44 24 20          	mov    0x20(%rsp),%eax
  4018bb:	69 c0 62 34 00 00    	imul   $0x3462,%eax,%eax
  4018c1:	89 44 24 20          	mov    %eax,0x20(%rsp)
  4018c5:	8b 44 24 0c          	mov    0xc(%rsp),%eax
  4018c9:	69 c0 2f f5 00 00    	imul   $0xf52f,%eax,%eax
  4018cf:	89 44 24 0c          	mov    %eax,0xc(%rsp)
  4018d3:	8b 44 24 24          	mov    0x24(%rsp),%eax
  4018d7:	69 c0 0b 80 00 00    	imul   $0x800b,%eax,%eax
  4018dd:	89 44 24 24          	mov    %eax,0x24(%rsp)
  4018e1:	8b 44 24 04          	mov    0x4(%rsp),%eax
  4018e5:	69 c0 81 cb 00 00    	imul   $0xcb81,%eax,%eax
  4018eb:	89 44 24 04          	mov    %eax,0x4(%rsp)
  4018ef:	8b 44 24 10          	mov    0x10(%rsp),%eax
  4018f3:	69 c0 f7 12 00 00    	imul   $0x12f7,%eax,%eax
  4018f9:	89 44 24 10          	mov    %eax,0x10(%rsp)
  4018fd:	ba 00 00 00 00       	mov    $0x0,%edx
  401902:	b8 00 00 00 00       	mov    $0x0,%eax
  401907:	eb 0a                	jmp    401913 <scramble+0x584>
  401909:	89 d1                	mov    %edx,%ecx
  40190b:	8b 0c 8c             	mov    (%rsp,%rcx,4),%ecx
  40190e:	01 c8                	add    %ecx,%eax
  401910:	83 c2 01             	add    $0x1,%edx
  401913:	83 fa 09             	cmp    $0x9,%edx
  401916:	76 f1                	jbe    401909 <scramble+0x57a>
  401918:	48 8b 74 24 28       	mov    0x28(%rsp),%rsi
  40191d:	64 48 33 34 25 28 00 	xor    %fs:0x28,%rsi
  401924:	00 00 
  401926:	74 05                	je     40192d <scramble+0x59e>
  401928:	e8 c3 f3 ff ff       	callq  400cf0 <__stack_chk_fail@plt>
  40192d:	48 83 c4 38          	add    $0x38,%rsp
  401931:	c3                   	retq   

0000000000401932 <getbuf>:
  401932:	48 83 ec 18          	sub    $0x18,%rsp
  401936:	48 89 e7             	mov    %rsp,%rdi
  401939:	e8 7e 02 00 00       	callq  401bbc <Gets>
  40193e:	b8 01 00 00 00       	mov    $0x1,%eax
  401943:	48 83 c4 18          	add    $0x18,%rsp
  401947:	c3                   	retq   

0000000000401948 <touch1>:
  401948:	48 83 ec 08          	sub    $0x8,%rsp
  40194c:	c7 05 c6 3b 20 00 01 	movl   $0x1,0x203bc6(%rip)        # 60551c <vlevel>
  401953:	00 00 00 
  401956:	bf c8 32 40 00       	mov    $0x4032c8,%edi
  40195b:	e8 70 f3 ff ff       	callq  400cd0 <puts@plt>
  401960:	bf 01 00 00 00       	mov    $0x1,%edi
  401965:	e8 97 04 00 00       	callq  401e01 <validate>
  40196a:	bf 00 00 00 00       	mov    $0x0,%edi
  40196f:	e8 dc f4 ff ff       	callq  400e50 <exit@plt>

0000000000401974 <touch2>:
  401974:	48 83 ec 08          	sub    $0x8,%rsp
  401978:	89 fa                	mov    %edi,%edx
  40197a:	c7 05 98 3b 20 00 02 	movl   $0x2,0x203b98(%rip)        # 60551c <vlevel>
  401981:	00 00 00 
  401984:	39 3d 9a 3b 20 00    	cmp    %edi,0x203b9a(%rip)        # 605524 <cookie>
  40198a:	75 20                	jne    4019ac <touch2+0x38>
  40198c:	be f0 32 40 00       	mov    $0x4032f0,%esi
  401991:	bf 01 00 00 00       	mov    $0x1,%edi
  401996:	b8 00 00 00 00       	mov    $0x0,%eax
  40199b:	e8 60 f4 ff ff       	callq  400e00 <__printf_chk@plt>
  4019a0:	bf 02 00 00 00       	mov    $0x2,%edi
  4019a5:	e8 57 04 00 00       	callq  401e01 <validate>
  4019aa:	eb 1e                	jmp    4019ca <touch2+0x56>
  4019ac:	be 18 33 40 00       	mov    $0x403318,%esi
  4019b1:	bf 01 00 00 00       	mov    $0x1,%edi
  4019b6:	b8 00 00 00 00       	mov    $0x0,%eax
  4019bb:	e8 40 f4 ff ff       	callq  400e00 <__printf_chk@plt>
  4019c0:	bf 02 00 00 00       	mov    $0x2,%edi
  4019c5:	e8 f9 04 00 00       	callq  401ec3 <fail>
  4019ca:	bf 00 00 00 00       	mov    $0x0,%edi
  4019cf:	e8 7c f4 ff ff       	callq  400e50 <exit@plt>

00000000004019d4 <hexmatch>:
  4019d4:	41 54                	push   %r12
  4019d6:	55                   	push   %rbp
  4019d7:	53                   	push   %rbx
  4019d8:	48 83 c4 80          	add    $0xffffffffffffff80,%rsp
  4019dc:	89 fd                	mov    %edi,%ebp
  4019de:	48 89 f3             	mov    %rsi,%rbx
  4019e1:	64 48 8b 04 25 28 00 	mov    %fs:0x28,%rax
  4019e8:	00 00 
  4019ea:	48 89 44 24 78       	mov    %rax,0x78(%rsp)
  4019ef:	31 c0                	xor    %eax,%eax
  4019f1:	e8 ca f3 ff ff       	callq  400dc0 <random@plt>
  4019f6:	48 89 c1             	mov    %rax,%rcx
  4019f9:	48 ba 0b d7 a3 70 3d 	movabs $0xa3d70a3d70a3d70b,%rdx
  401a00:	0a d7 a3 
  401a03:	48 f7 ea             	imul   %rdx
  401a06:	48 01 ca             	add    %rcx,%rdx
  401a09:	48 c1 fa 06          	sar    $0x6,%rdx
  401a0d:	48 89 c8             	mov    %rcx,%rax
  401a10:	48 c1 f8 3f          	sar    $0x3f,%rax
  401a14:	48 29 c2             	sub    %rax,%rdx
  401a17:	48 8d 04 92          	lea    (%rdx,%rdx,4),%rax
  401a1b:	48 8d 14 80          	lea    (%rax,%rax,4),%rdx
  401a1f:	48 8d 04 95 00 00 00 	lea    0x0(,%rdx,4),%rax
  401a26:	00 
  401a27:	48 29 c1             	sub    %rax,%rcx
  401a2a:	4c 8d 24 0c          	lea    (%rsp,%rcx,1),%r12
  401a2e:	41 89 e8             	mov    %ebp,%r8d
  401a31:	b9 e5 32 40 00       	mov    $0x4032e5,%ecx
  401a36:	48 c7 c2 ff ff ff ff 	mov    $0xffffffffffffffff,%rdx
  401a3d:	be 01 00 00 00       	mov    $0x1,%esi
  401a42:	4c 89 e7             	mov    %r12,%rdi
  401a45:	b8 00 00 00 00       	mov    $0x0,%eax
  401a4a:	e8 31 f4 ff ff       	callq  400e80 <__sprintf_chk@plt>
  401a4f:	ba 09 00 00 00       	mov    $0x9,%edx
  401a54:	4c 89 e6             	mov    %r12,%rsi
  401a57:	48 89 df             	mov    %rbx,%rdi
  401a5a:	e8 51 f2 ff ff       	callq  400cb0 <strncmp@plt>
  401a5f:	85 c0                	test   %eax,%eax
  401a61:	0f 94 c0             	sete   %al
  401a64:	48 8b 5c 24 78       	mov    0x78(%rsp),%rbx
  401a69:	64 48 33 1c 25 28 00 	xor    %fs:0x28,%rbx
  401a70:	00 00 
  401a72:	74 05                	je     401a79 <hexmatch+0xa5>
  401a74:	e8 77 f2 ff ff       	callq  400cf0 <__stack_chk_fail@plt>
  401a79:	0f b6 c0             	movzbl %al,%eax
  401a7c:	48 83 ec 80          	sub    $0xffffffffffffff80,%rsp
  401a80:	5b                   	pop    %rbx
  401a81:	5d                   	pop    %rbp
  401a82:	41 5c                	pop    %r12
  401a84:	c3                   	retq   

0000000000401a85 <touch3>:
  401a85:	53                   	push   %rbx
  401a86:	48 89 fb             	mov    %rdi,%rbx
  401a89:	c7 05 89 3a 20 00 03 	movl   $0x3,0x203a89(%rip)        # 60551c <vlevel>
  401a90:	00 00 00 
  401a93:	48 89 fe             	mov    %rdi,%rsi
  401a96:	8b 3d 88 3a 20 00    	mov    0x203a88(%rip),%edi        # 605524 <cookie>
  401a9c:	e8 33 ff ff ff       	callq  4019d4 <hexmatch>
  401aa1:	85 c0                	test   %eax,%eax
  401aa3:	74 23                	je     401ac8 <touch3+0x43>
  401aa5:	48 89 da             	mov    %rbx,%rdx
  401aa8:	be 40 33 40 00       	mov    $0x403340,%esi
  401aad:	bf 01 00 00 00       	mov    $0x1,%edi
  401ab2:	b8 00 00 00 00       	mov    $0x0,%eax
  401ab7:	e8 44 f3 ff ff       	callq  400e00 <__printf_chk@plt>
  401abc:	bf 03 00 00 00       	mov    $0x3,%edi
  401ac1:	e8 3b 03 00 00       	callq  401e01 <validate>
  401ac6:	eb 21                	jmp    401ae9 <touch3+0x64>
  401ac8:	48 89 da             	mov    %rbx,%rdx
  401acb:	be 68 33 40 00       	mov    $0x403368,%esi
  401ad0:	bf 01 00 00 00       	mov    $0x1,%edi
  401ad5:	b8 00 00 00 00       	mov    $0x0,%eax
  401ada:	e8 21 f3 ff ff       	callq  400e00 <__printf_chk@plt>
  401adf:	bf 03 00 00 00       	mov    $0x3,%edi
  401ae4:	e8 da 03 00 00       	callq  401ec3 <fail>
  401ae9:	bf 00 00 00 00       	mov    $0x0,%edi
  401aee:	e8 5d f3 ff ff       	callq  400e50 <exit@plt>

0000000000401af3 <test>:
  401af3:	48 83 ec 08          	sub    $0x8,%rsp
  401af7:	b8 00 00 00 00       	mov    $0x0,%eax
  401afc:	e8 31 fe ff ff       	callq  401932 <getbuf>
  401b01:	89 c2                	mov    %eax,%edx
  401b03:	be 90 33 40 00       	mov    $0x403390,%esi
  401b08:	bf 01 00 00 00       	mov    $0x1,%edi
  401b0d:	b8 00 00 00 00       	mov    $0x0,%eax
  401b12:	e8 e9 f2 ff ff       	callq  400e00 <__printf_chk@plt>
  401b17:	48 83 c4 08          	add    $0x8,%rsp
  401b1b:	c3                   	retq   

0000000000401b1c <save_char>:
  401b1c:	8b 05 22 46 20 00    	mov    0x204622(%rip),%eax        # 606144 <gets_cnt>
  401b22:	3d ff 03 00 00       	cmp    $0x3ff,%eax
  401b27:	7f 49                	jg     401b72 <save_char+0x56>
  401b29:	8d 14 40             	lea    (%rax,%rax,2),%edx
  401b2c:	89 f9                	mov    %edi,%ecx
  401b2e:	c0 e9 04             	shr    $0x4,%cl
  401b31:	83 e1 0f             	and    $0xf,%ecx
  401b34:	0f b6 b1 b0 36 40 00 	movzbl 0x4036b0(%rcx),%esi
  401b3b:	48 63 ca             	movslq %edx,%rcx
  401b3e:	40 88 b1 40 55 60 00 	mov    %sil,0x605540(%rcx)
  401b45:	8d 4a 01             	lea    0x1(%rdx),%ecx
  401b48:	83 e7 0f             	and    $0xf,%edi
  401b4b:	0f b6 b7 b0 36 40 00 	movzbl 0x4036b0(%rdi),%esi
  401b52:	48 63 c9             	movslq %ecx,%rcx
  401b55:	40 88 b1 40 55 60 00 	mov    %sil,0x605540(%rcx)
  401b5c:	83 c2 02             	add    $0x2,%edx
  401b5f:	48 63 d2             	movslq %edx,%rdx
  401b62:	c6 82 40 55 60 00 20 	movb   $0x20,0x605540(%rdx)
  401b69:	83 c0 01             	add    $0x1,%eax
  401b6c:	89 05 d2 45 20 00    	mov    %eax,0x2045d2(%rip)        # 606144 <gets_cnt>
  401b72:	f3 c3                	repz retq 

0000000000401b74 <save_term>:
  401b74:	8b 05 ca 45 20 00    	mov    0x2045ca(%rip),%eax        # 606144 <gets_cnt>
  401b7a:	8d 04 40             	lea    (%rax,%rax,2),%eax
  401b7d:	48 98                	cltq   
  401b7f:	c6 80 40 55 60 00 00 	movb   $0x0,0x605540(%rax)
  401b86:	c3                   	retq   

0000000000401b87 <check_fail>:
  401b87:	48 83 ec 08          	sub    $0x8,%rsp
  401b8b:	0f be 15 b6 45 20 00 	movsbl 0x2045b6(%rip),%edx        # 606148 <target_prefix>
  401b92:	41 b8 40 55 60 00    	mov    $0x605540,%r8d
  401b98:	8b 0d 7a 39 20 00    	mov    0x20397a(%rip),%ecx        # 605518 <check_level>
  401b9e:	be b3 33 40 00       	mov    $0x4033b3,%esi
  401ba3:	bf 01 00 00 00       	mov    $0x1,%edi
  401ba8:	b8 00 00 00 00       	mov    $0x0,%eax
  401bad:	e8 4e f2 ff ff       	callq  400e00 <__printf_chk@plt>
  401bb2:	bf 01 00 00 00       	mov    $0x1,%edi
  401bb7:	e8 94 f2 ff ff       	callq  400e50 <exit@plt>

0000000000401bbc <Gets>:
  401bbc:	41 54                	push   %r12
  401bbe:	55                   	push   %rbp
  401bbf:	53                   	push   %rbx
  401bc0:	49 89 fc             	mov    %rdi,%r12
  401bc3:	c7 05 77 45 20 00 00 	movl   $0x0,0x204577(%rip)        # 606144 <gets_cnt>
  401bca:	00 00 00 
  401bcd:	48 89 fb             	mov    %rdi,%rbx
  401bd0:	eb 11                	jmp    401be3 <Gets+0x27>
  401bd2:	48 8d 6b 01          	lea    0x1(%rbx),%rbp
  401bd6:	88 03                	mov    %al,(%rbx)
  401bd8:	0f b6 f8             	movzbl %al,%edi
  401bdb:	e8 3c ff ff ff       	callq  401b1c <save_char>
  401be0:	48 89 eb             	mov    %rbp,%rbx
  401be3:	48 8b 3d 26 39 20 00 	mov    0x203926(%rip),%rdi        # 605510 <infile>
  401bea:	e8 e1 f1 ff ff       	callq  400dd0 <_IO_getc@plt>
  401bef:	83 f8 ff             	cmp    $0xffffffff,%eax
  401bf2:	74 05                	je     401bf9 <Gets+0x3d>
  401bf4:	83 f8 0a             	cmp    $0xa,%eax
  401bf7:	75 d9                	jne    401bd2 <Gets+0x16>
  401bf9:	c6 03 00             	movb   $0x0,(%rbx)
  401bfc:	b8 00 00 00 00       	mov    $0x0,%eax
  401c01:	e8 6e ff ff ff       	callq  401b74 <save_term>
  401c06:	4c 89 e0             	mov    %r12,%rax
  401c09:	5b                   	pop    %rbx
  401c0a:	5d                   	pop    %rbp
  401c0b:	41 5c                	pop    %r12
  401c0d:	c3                   	retq   

0000000000401c0e <notify_server>:
  401c0e:	53                   	push   %rbx
  401c0f:	48 81 ec 10 40 00 00 	sub    $0x4010,%rsp
  401c16:	64 48 8b 04 25 28 00 	mov    %fs:0x28,%rax
  401c1d:	00 00 
  401c1f:	48 89 84 24 08 40 00 	mov    %rax,0x4008(%rsp)
  401c26:	00 
  401c27:	31 c0                	xor    %eax,%eax
  401c29:	83 3d f8 38 20 00 00 	cmpl   $0x0,0x2038f8(%rip)        # 605528 <is_checker>
  401c30:	0f 85 aa 01 00 00    	jne    401de0 <notify_server+0x1d2>
  401c36:	89 fb                	mov    %edi,%ebx
  401c38:	8b 05 06 45 20 00    	mov    0x204506(%rip),%eax        # 606144 <gets_cnt>
  401c3e:	83 c0 64             	add    $0x64,%eax
  401c41:	3d 00 20 00 00       	cmp    $0x2000,%eax
  401c46:	7e 1e                	jle    401c66 <notify_server+0x58>
  401c48:	be e8 34 40 00       	mov    $0x4034e8,%esi
  401c4d:	bf 01 00 00 00       	mov    $0x1,%edi
  401c52:	b8 00 00 00 00       	mov    $0x0,%eax
  401c57:	e8 a4 f1 ff ff       	callq  400e00 <__printf_chk@plt>
  401c5c:	bf 01 00 00 00       	mov    $0x1,%edi
  401c61:	e8 ea f1 ff ff       	callq  400e50 <exit@plt>
  401c66:	0f be 05 db 44 20 00 	movsbl 0x2044db(%rip),%eax        # 606148 <target_prefix>
  401c6d:	83 3d 34 38 20 00 00 	cmpl   $0x0,0x203834(%rip)        # 6054a8 <notify>
  401c74:	74 08                	je     401c7e <notify_server+0x70>
  401c76:	8b 15 a4 38 20 00    	mov    0x2038a4(%rip),%edx        # 605520 <authkey>
  401c7c:	eb 05                	jmp    401c83 <notify_server+0x75>
  401c7e:	ba ff ff ff ff       	mov    $0xffffffff,%edx
  401c83:	85 db                	test   %ebx,%ebx
  401c85:	74 08                	je     401c8f <notify_server+0x81>
  401c87:	41 b9 c9 33 40 00    	mov    $0x4033c9,%r9d
  401c8d:	eb 06                	jmp    401c95 <notify_server+0x87>
  401c8f:	41 b9 ce 33 40 00    	mov    $0x4033ce,%r9d
  401c95:	68 40 55 60 00       	pushq  $0x605540
  401c9a:	56                   	push   %rsi
  401c9b:	50                   	push   %rax
  401c9c:	52                   	push   %rdx
  401c9d:	44 8b 05 c4 34 20 00 	mov    0x2034c4(%rip),%r8d        # 605168 <target_id>
  401ca4:	b9 d3 33 40 00       	mov    $0x4033d3,%ecx
  401ca9:	ba 00 20 00 00       	mov    $0x2000,%edx
  401cae:	be 01 00 00 00       	mov    $0x1,%esi
  401cb3:	48 8d 7c 24 20       	lea    0x20(%rsp),%rdi
  401cb8:	b8 00 00 00 00       	mov    $0x0,%eax
  401cbd:	e8 be f1 ff ff       	callq  400e80 <__sprintf_chk@plt>
  401cc2:	48 83 c4 20          	add    $0x20,%rsp
  401cc6:	83 3d db 37 20 00 00 	cmpl   $0x0,0x2037db(%rip)        # 6054a8 <notify>
  401ccd:	0f 84 81 00 00 00    	je     401d54 <notify_server+0x146>
  401cd3:	85 db                	test   %ebx,%ebx
  401cd5:	74 6e                	je     401d45 <notify_server+0x137>
  401cd7:	4c 8d 8c 24 00 20 00 	lea    0x2000(%rsp),%r9
  401cde:	00 
  401cdf:	41 b8 00 00 00 00    	mov    $0x0,%r8d
  401ce5:	48 89 e1             	mov    %rsp,%rcx
  401ce8:	48 8b 15 81 34 20 00 	mov    0x203481(%rip),%rdx        # 605170 <lab>
  401cef:	48 8b 35 82 34 20 00 	mov    0x203482(%rip),%rsi        # 605178 <course>
  401cf6:	48 8b 3d 63 34 20 00 	mov    0x203463(%rip),%rdi        # 605160 <user_id>
  401cfd:	e8 ef 10 00 00       	callq  402df1 <driver_post>
  401d02:	85 c0                	test   %eax,%eax
  401d04:	79 26                	jns    401d2c <notify_server+0x11e>
  401d06:	48 8d 94 24 00 20 00 	lea    0x2000(%rsp),%rdx
  401d0d:	00 
  401d0e:	be ef 33 40 00       	mov    $0x4033ef,%esi
  401d13:	bf 01 00 00 00       	mov    $0x1,%edi
  401d18:	b8 00 00 00 00       	mov    $0x0,%eax
  401d1d:	e8 de f0 ff ff       	callq  400e00 <__printf_chk@plt>
  401d22:	bf 01 00 00 00       	mov    $0x1,%edi
  401d27:	e8 24 f1 ff ff       	callq  400e50 <exit@plt>
  401d2c:	bf 18 35 40 00       	mov    $0x403518,%edi
  401d31:	e8 9a ef ff ff       	callq  400cd0 <puts@plt>
  401d36:	bf fb 33 40 00       	mov    $0x4033fb,%edi
  401d3b:	e8 90 ef ff ff       	callq  400cd0 <puts@plt>
  401d40:	e9 9b 00 00 00       	jmpq   401de0 <notify_server+0x1d2>
  401d45:	bf 05 34 40 00       	mov    $0x403405,%edi
  401d4a:	e8 81 ef ff ff       	callq  400cd0 <puts@plt>
  401d4f:	e9 8c 00 00 00       	jmpq   401de0 <notify_server+0x1d2>
  401d54:	85 db                	test   %ebx,%ebx
  401d56:	74 07                	je     401d5f <notify_server+0x151>
  401d58:	ba c9 33 40 00       	mov    $0x4033c9,%edx
  401d5d:	eb 05                	jmp    401d64 <notify_server+0x156>
  401d5f:	ba ce 33 40 00       	mov    $0x4033ce,%edx
  401d64:	be 50 35 40 00       	mov    $0x403550,%esi
  401d69:	bf 01 00 00 00       	mov    $0x1,%edi
  401d6e:	b8 00 00 00 00       	mov    $0x0,%eax
  401d73:	e8 88 f0 ff ff       	callq  400e00 <__printf_chk@plt>
  401d78:	48 8b 15 e1 33 20 00 	mov    0x2033e1(%rip),%rdx        # 605160 <user_id>
  401d7f:	be 0c 34 40 00       	mov    $0x40340c,%esi
  401d84:	bf 01 00 00 00       	mov    $0x1,%edi
  401d89:	b8 00 00 00 00       	mov    $0x0,%eax
  401d8e:	e8 6d f0 ff ff       	callq  400e00 <__printf_chk@plt>
  401d93:	48 8b 15 de 33 20 00 	mov    0x2033de(%rip),%rdx        # 605178 <course>
  401d9a:	be 19 34 40 00       	mov    $0x403419,%esi
  401d9f:	bf 01 00 00 00       	mov    $0x1,%edi
  401da4:	b8 00 00 00 00       	mov    $0x0,%eax
  401da9:	e8 52 f0 ff ff       	callq  400e00 <__printf_chk@plt>
  401dae:	48 8b 15 bb 33 20 00 	mov    0x2033bb(%rip),%rdx        # 605170 <lab>
  401db5:	be 25 34 40 00       	mov    $0x403425,%esi
  401dba:	bf 01 00 00 00       	mov    $0x1,%edi
  401dbf:	b8 00 00 00 00       	mov    $0x0,%eax
  401dc4:	e8 37 f0 ff ff       	callq  400e00 <__printf_chk@plt>
  401dc9:	48 89 e2             	mov    %rsp,%rdx
  401dcc:	be 2e 34 40 00       	mov    $0x40342e,%esi
  401dd1:	bf 01 00 00 00       	mov    $0x1,%edi
  401dd6:	b8 00 00 00 00       	mov    $0x0,%eax
  401ddb:	e8 20 f0 ff ff       	callq  400e00 <__printf_chk@plt>
  401de0:	48 8b 84 24 08 40 00 	mov    0x4008(%rsp),%rax
  401de7:	00 
  401de8:	64 48 33 04 25 28 00 	xor    %fs:0x28,%rax
  401def:	00 00 
  401df1:	74 05                	je     401df8 <notify_server+0x1ea>
  401df3:	e8 f8 ee ff ff       	callq  400cf0 <__stack_chk_fail@plt>
  401df8:	48 81 c4 10 40 00 00 	add    $0x4010,%rsp
  401dff:	5b                   	pop    %rbx
  401e00:	c3                   	retq   

0000000000401e01 <validate>:
  401e01:	53                   	push   %rbx
  401e02:	89 fb                	mov    %edi,%ebx
  401e04:	83 3d 1d 37 20 00 00 	cmpl   $0x0,0x20371d(%rip)        # 605528 <is_checker>
  401e0b:	74 6b                	je     401e78 <validate+0x77>
  401e0d:	39 3d 09 37 20 00    	cmp    %edi,0x203709(%rip)        # 60551c <vlevel>
  401e13:	74 14                	je     401e29 <validate+0x28>
  401e15:	bf 3a 34 40 00       	mov    $0x40343a,%edi
  401e1a:	e8 b1 ee ff ff       	callq  400cd0 <puts@plt>
  401e1f:	b8 00 00 00 00       	mov    $0x0,%eax
  401e24:	e8 5e fd ff ff       	callq  401b87 <check_fail>
  401e29:	8b 15 e9 36 20 00    	mov    0x2036e9(%rip),%edx        # 605518 <check_level>
  401e2f:	39 d7                	cmp    %edx,%edi
  401e31:	74 20                	je     401e53 <validate+0x52>
  401e33:	89 f9                	mov    %edi,%ecx
  401e35:	be 78 35 40 00       	mov    $0x403578,%esi
  401e3a:	bf 01 00 00 00       	mov    $0x1,%edi
  401e3f:	b8 00 00 00 00       	mov    $0x0,%eax
  401e44:	e8 b7 ef ff ff       	callq  400e00 <__printf_chk@plt>
  401e49:	b8 00 00 00 00       	mov    $0x0,%eax
  401e4e:	e8 34 fd ff ff       	callq  401b87 <check_fail>
  401e53:	0f be 15 ee 42 20 00 	movsbl 0x2042ee(%rip),%edx        # 606148 <target_prefix>
  401e5a:	41 b8 40 55 60 00    	mov    $0x605540,%r8d
  401e60:	89 f9                	mov    %edi,%ecx
  401e62:	be 58 34 40 00       	mov    $0x403458,%esi
  401e67:	bf 01 00 00 00       	mov    $0x1,%edi
  401e6c:	b8 00 00 00 00       	mov    $0x0,%eax
  401e71:	e8 8a ef ff ff       	callq  400e00 <__printf_chk@plt>
  401e76:	eb 49                	jmp    401ec1 <validate+0xc0>
  401e78:	3b 3d 9e 36 20 00    	cmp    0x20369e(%rip),%edi        # 60551c <vlevel>
  401e7e:	74 18                	je     401e98 <validate+0x97>
  401e80:	bf 3a 34 40 00       	mov    $0x40343a,%edi
  401e85:	e8 46 ee ff ff       	callq  400cd0 <puts@plt>
  401e8a:	89 de                	mov    %ebx,%esi
  401e8c:	bf 00 00 00 00       	mov    $0x0,%edi
  401e91:	e8 78 fd ff ff       	callq  401c0e <notify_server>
  401e96:	eb 29                	jmp    401ec1 <validate+0xc0>
  401e98:	0f be 0d a9 42 20 00 	movsbl 0x2042a9(%rip),%ecx        # 606148 <target_prefix>
  401e9f:	89 fa                	mov    %edi,%edx
  401ea1:	be a0 35 40 00       	mov    $0x4035a0,%esi
  401ea6:	bf 01 00 00 00       	mov    $0x1,%edi
  401eab:	b8 00 00 00 00       	mov    $0x0,%eax
  401eb0:	e8 4b ef ff ff       	callq  400e00 <__printf_chk@plt>
  401eb5:	89 de                	mov    %ebx,%esi
  401eb7:	bf 01 00 00 00       	mov    $0x1,%edi
  401ebc:	e8 4d fd ff ff       	callq  401c0e <notify_server>
  401ec1:	5b                   	pop    %rbx
  401ec2:	c3                   	retq   

0000000000401ec3 <fail>:
  401ec3:	48 83 ec 08          	sub    $0x8,%rsp
  401ec7:	83 3d 5a 36 20 00 00 	cmpl   $0x0,0x20365a(%rip)        # 605528 <is_checker>
  401ece:	74 0a                	je     401eda <fail+0x17>
  401ed0:	b8 00 00 00 00       	mov    $0x0,%eax
  401ed5:	e8 ad fc ff ff       	callq  401b87 <check_fail>
  401eda:	89 fe                	mov    %edi,%esi
  401edc:	bf 00 00 00 00       	mov    $0x0,%edi
  401ee1:	e8 28 fd ff ff       	callq  401c0e <notify_server>
  401ee6:	48 83 c4 08          	add    $0x8,%rsp
  401eea:	c3                   	retq   

0000000000401eeb <bushandler>:
  401eeb:	48 83 ec 08          	sub    $0x8,%rsp
  401eef:	83 3d 32 36 20 00 00 	cmpl   $0x0,0x203632(%rip)        # 605528 <is_checker>
  401ef6:	74 14                	je     401f0c <bushandler+0x21>
  401ef8:	bf 6d 34 40 00       	mov    $0x40346d,%edi
  401efd:	e8 ce ed ff ff       	callq  400cd0 <puts@plt>
  401f02:	b8 00 00 00 00       	mov    $0x0,%eax
  401f07:	e8 7b fc ff ff       	callq  401b87 <check_fail>
  401f0c:	bf d8 35 40 00       	mov    $0x4035d8,%edi
  401f11:	e8 ba ed ff ff       	callq  400cd0 <puts@plt>
  401f16:	bf 77 34 40 00       	mov    $0x403477,%edi
  401f1b:	e8 b0 ed ff ff       	callq  400cd0 <puts@plt>
  401f20:	be 00 00 00 00       	mov    $0x0,%esi
  401f25:	bf 00 00 00 00       	mov    $0x0,%edi
  401f2a:	e8 df fc ff ff       	callq  401c0e <notify_server>
  401f2f:	bf 01 00 00 00       	mov    $0x1,%edi
  401f34:	e8 17 ef ff ff       	callq  400e50 <exit@plt>

0000000000401f39 <seghandler>:
  401f39:	48 83 ec 08          	sub    $0x8,%rsp
  401f3d:	83 3d e4 35 20 00 00 	cmpl   $0x0,0x2035e4(%rip)        # 605528 <is_checker>
  401f44:	74 14                	je     401f5a <seghandler+0x21>
  401f46:	bf 8d 34 40 00       	mov    $0x40348d,%edi
  401f4b:	e8 80 ed ff ff       	callq  400cd0 <puts@plt>
  401f50:	b8 00 00 00 00       	mov    $0x0,%eax
  401f55:	e8 2d fc ff ff       	callq  401b87 <check_fail>
  401f5a:	bf f8 35 40 00       	mov    $0x4035f8,%edi
  401f5f:	e8 6c ed ff ff       	callq  400cd0 <puts@plt>
  401f64:	bf 77 34 40 00       	mov    $0x403477,%edi
  401f69:	e8 62 ed ff ff       	callq  400cd0 <puts@plt>
  401f6e:	be 00 00 00 00       	mov    $0x0,%esi
  401f73:	bf 00 00 00 00       	mov    $0x0,%edi
  401f78:	e8 91 fc ff ff       	callq  401c0e <notify_server>
  401f7d:	bf 01 00 00 00       	mov    $0x1,%edi
  401f82:	e8 c9 ee ff ff       	callq  400e50 <exit@plt>

0000000000401f87 <illegalhandler>:
  401f87:	48 83 ec 08          	sub    $0x8,%rsp
  401f8b:	83 3d 96 35 20 00 00 	cmpl   $0x0,0x203596(%rip)        # 605528 <is_checker>
  401f92:	74 14                	je     401fa8 <illegalhandler+0x21>
  401f94:	bf a0 34 40 00       	mov    $0x4034a0,%edi
  401f99:	e8 32 ed ff ff       	callq  400cd0 <puts@plt>
  401f9e:	b8 00 00 00 00       	mov    $0x0,%eax
  401fa3:	e8 df fb ff ff       	callq  401b87 <check_fail>
  401fa8:	bf 20 36 40 00       	mov    $0x403620,%edi
  401fad:	e8 1e ed ff ff       	callq  400cd0 <puts@plt>
  401fb2:	bf 77 34 40 00       	mov    $0x403477,%edi
  401fb7:	e8 14 ed ff ff       	callq  400cd0 <puts@plt>
  401fbc:	be 00 00 00 00       	mov    $0x0,%esi
  401fc1:	bf 00 00 00 00       	mov    $0x0,%edi
  401fc6:	e8 43 fc ff ff       	callq  401c0e <notify_server>
  401fcb:	bf 01 00 00 00       	mov    $0x1,%edi
  401fd0:	e8 7b ee ff ff       	callq  400e50 <exit@plt>

0000000000401fd5 <sigalrmhandler>:
  401fd5:	48 83 ec 08          	sub    $0x8,%rsp
  401fd9:	83 3d 48 35 20 00 00 	cmpl   $0x0,0x203548(%rip)        # 605528 <is_checker>
  401fe0:	74 14                	je     401ff6 <sigalrmhandler+0x21>
  401fe2:	bf b4 34 40 00       	mov    $0x4034b4,%edi
  401fe7:	e8 e4 ec ff ff       	callq  400cd0 <puts@plt>
  401fec:	b8 00 00 00 00       	mov    $0x0,%eax
  401ff1:	e8 91 fb ff ff       	callq  401b87 <check_fail>
  401ff6:	ba 05 00 00 00       	mov    $0x5,%edx
  401ffb:	be 50 36 40 00       	mov    $0x403650,%esi
  402000:	bf 01 00 00 00       	mov    $0x1,%edi
  402005:	b8 00 00 00 00       	mov    $0x0,%eax
  40200a:	e8 f1 ed ff ff       	callq  400e00 <__printf_chk@plt>
  40200f:	be 00 00 00 00       	mov    $0x0,%esi
  402014:	bf 00 00 00 00       	mov    $0x0,%edi
  402019:	e8 f0 fb ff ff       	callq  401c0e <notify_server>
  40201e:	bf 01 00 00 00       	mov    $0x1,%edi
  402023:	e8 28 ee ff ff       	callq  400e50 <exit@plt>

0000000000402028 <launch>:
  402028:	55                   	push   %rbp
  402029:	48 89 e5             	mov    %rsp,%rbp
  40202c:	48 83 ec 10          	sub    $0x10,%rsp
  402030:	48 89 fa             	mov    %rdi,%rdx
  402033:	64 48 8b 04 25 28 00 	mov    %fs:0x28,%rax
  40203a:	00 00 
  40203c:	48 89 45 f8          	mov    %rax,-0x8(%rbp)
  402040:	31 c0                	xor    %eax,%eax
  402042:	48 8d 47 1e          	lea    0x1e(%rdi),%rax
  402046:	48 83 e0 f0          	and    $0xfffffffffffffff0,%rax
  40204a:	48 29 c4             	sub    %rax,%rsp
  40204d:	48 8d 7c 24 0f       	lea    0xf(%rsp),%rdi
  402052:	48 83 e7 f0          	and    $0xfffffffffffffff0,%rdi
  402056:	be f4 00 00 00       	mov    $0xf4,%esi
  40205b:	e8 b0 ec ff ff       	callq  400d10 <memset@plt>
  402060:	48 8b 05 59 34 20 00 	mov    0x203459(%rip),%rax        # 6054c0 <stdin@@GLIBC_2.2.5>
  402067:	48 39 05 a2 34 20 00 	cmp    %rax,0x2034a2(%rip)        # 605510 <infile>
  40206e:	75 14                	jne    402084 <launch+0x5c>
  402070:	be bc 34 40 00       	mov    $0x4034bc,%esi
  402075:	bf 01 00 00 00       	mov    $0x1,%edi
  40207a:	b8 00 00 00 00       	mov    $0x0,%eax
  40207f:	e8 7c ed ff ff       	callq  400e00 <__printf_chk@plt>
  402084:	c7 05 8e 34 20 00 00 	movl   $0x0,0x20348e(%rip)        # 60551c <vlevel>
  40208b:	00 00 00 
  40208e:	b8 00 00 00 00       	mov    $0x0,%eax
  402093:	e8 5b fa ff ff       	callq  401af3 <test>
  402098:	83 3d 89 34 20 00 00 	cmpl   $0x0,0x203489(%rip)        # 605528 <is_checker>
  40209f:	74 14                	je     4020b5 <launch+0x8d>
  4020a1:	bf c9 34 40 00       	mov    $0x4034c9,%edi
  4020a6:	e8 25 ec ff ff       	callq  400cd0 <puts@plt>
  4020ab:	b8 00 00 00 00       	mov    $0x0,%eax
  4020b0:	e8 d2 fa ff ff       	callq  401b87 <check_fail>
  4020b5:	bf d4 34 40 00       	mov    $0x4034d4,%edi
  4020ba:	e8 11 ec ff ff       	callq  400cd0 <puts@plt>
  4020bf:	48 8b 45 f8          	mov    -0x8(%rbp),%rax
  4020c3:	64 48 33 04 25 28 00 	xor    %fs:0x28,%rax
  4020ca:	00 00 
  4020cc:	74 05                	je     4020d3 <launch+0xab>
  4020ce:	e8 1d ec ff ff       	callq  400cf0 <__stack_chk_fail@plt>
  4020d3:	c9                   	leaveq 
  4020d4:	c3                   	retq   

00000000004020d5 <stable_launch>:
  4020d5:	53                   	push   %rbx
  4020d6:	48 89 3d 2b 34 20 00 	mov    %rdi,0x20342b(%rip)        # 605508 <global_offset>
  4020dd:	41 b9 00 00 00 00    	mov    $0x0,%r9d
  4020e3:	41 b8 00 00 00 00    	mov    $0x0,%r8d
  4020e9:	b9 32 01 00 00       	mov    $0x132,%ecx
  4020ee:	ba 07 00 00 00       	mov    $0x7,%edx
  4020f3:	be 00 00 10 00       	mov    $0x100000,%esi
  4020f8:	bf 00 60 58 55       	mov    $0x55586000,%edi
  4020fd:	e8 fe eb ff ff       	callq  400d00 <mmap@plt>
  402102:	48 89 c3             	mov    %rax,%rbx
  402105:	48 3d 00 60 58 55    	cmp    $0x55586000,%rax
  40210b:	74 37                	je     402144 <stable_launch+0x6f>
  40210d:	be 00 00 10 00       	mov    $0x100000,%esi
  402112:	48 89 c7             	mov    %rax,%rdi
  402115:	e8 d6 ec ff ff       	callq  400df0 <munmap@plt>
  40211a:	b9 00 60 58 55       	mov    $0x55586000,%ecx
  40211f:	ba 88 36 40 00       	mov    $0x403688,%edx
  402124:	be 01 00 00 00       	mov    $0x1,%esi
  402129:	48 8b 3d b0 33 20 00 	mov    0x2033b0(%rip),%rdi        # 6054e0 <stderr@@GLIBC_2.2.5>
  402130:	b8 00 00 00 00       	mov    $0x0,%eax
  402135:	e8 36 ed ff ff       	callq  400e70 <__fprintf_chk@plt>
  40213a:	bf 01 00 00 00       	mov    $0x1,%edi
  40213f:	e8 0c ed ff ff       	callq  400e50 <exit@plt>
  402144:	48 8d 90 f8 ff 0f 00 	lea    0xffff8(%rax),%rdx
  40214b:	48 89 15 fe 3f 20 00 	mov    %rdx,0x203ffe(%rip)        # 606150 <stack_top>
  402152:	48 89 e0             	mov    %rsp,%rax
  402155:	48 89 d4             	mov    %rdx,%rsp
  402158:	48 89 c2             	mov    %rax,%rdx
  40215b:	48 89 15 9e 33 20 00 	mov    %rdx,0x20339e(%rip)        # 605500 <global_save_stack>
  402162:	48 8b 3d 9f 33 20 00 	mov    0x20339f(%rip),%rdi        # 605508 <global_offset>
  402169:	e8 ba fe ff ff       	callq  402028 <launch>
  40216e:	48 8b 05 8b 33 20 00 	mov    0x20338b(%rip),%rax        # 605500 <global_save_stack>
  402175:	48 89 c4             	mov    %rax,%rsp
  402178:	be 00 00 10 00       	mov    $0x100000,%esi
  40217d:	48 89 df             	mov    %rbx,%rdi
  402180:	e8 6b ec ff ff       	callq  400df0 <munmap@plt>
  402185:	5b                   	pop    %rbx
  402186:	c3                   	retq   

0000000000402187 <rio_readinitb>:
  402187:	89 37                	mov    %esi,(%rdi)
  402189:	c7 47 04 00 00 00 00 	movl   $0x0,0x4(%rdi)
  402190:	48 8d 47 10          	lea    0x10(%rdi),%rax
  402194:	48 89 47 08          	mov    %rax,0x8(%rdi)
  402198:	c3                   	retq   

0000000000402199 <sigalrm_handler>:
  402199:	48 83 ec 08          	sub    $0x8,%rsp
  40219d:	b9 00 00 00 00       	mov    $0x0,%ecx
  4021a2:	ba c0 36 40 00       	mov    $0x4036c0,%edx
  4021a7:	be 01 00 00 00       	mov    $0x1,%esi
  4021ac:	48 8b 3d 2d 33 20 00 	mov    0x20332d(%rip),%rdi        # 6054e0 <stderr@@GLIBC_2.2.5>
  4021b3:	b8 00 00 00 00       	mov    $0x0,%eax
  4021b8:	e8 b3 ec ff ff       	callq  400e70 <__fprintf_chk@plt>
  4021bd:	bf 01 00 00 00       	mov    $0x1,%edi
  4021c2:	e8 89 ec ff ff       	callq  400e50 <exit@plt>

00000000004021c7 <rio_writen>:
  4021c7:	41 55                	push   %r13
  4021c9:	41 54                	push   %r12
  4021cb:	55                   	push   %rbp
  4021cc:	53                   	push   %rbx
  4021cd:	48 83 ec 08          	sub    $0x8,%rsp
  4021d1:	41 89 fc             	mov    %edi,%r12d
  4021d4:	48 89 f5             	mov    %rsi,%rbp
  4021d7:	49 89 d5             	mov    %rdx,%r13
  4021da:	48 89 d3             	mov    %rdx,%rbx
  4021dd:	eb 28                	jmp    402207 <rio_writen+0x40>
  4021df:	48 89 da             	mov    %rbx,%rdx
  4021e2:	48 89 ee             	mov    %rbp,%rsi
  4021e5:	44 89 e7             	mov    %r12d,%edi
  4021e8:	e8 f3 ea ff ff       	callq  400ce0 <write@plt>
  4021ed:	48 85 c0             	test   %rax,%rax
  4021f0:	7f 0f                	jg     402201 <rio_writen+0x3a>
  4021f2:	e8 99 ea ff ff       	callq  400c90 <__errno_location@plt>
  4021f7:	83 38 04             	cmpl   $0x4,(%rax)
  4021fa:	75 15                	jne    402211 <rio_writen+0x4a>
  4021fc:	b8 00 00 00 00       	mov    $0x0,%eax
  402201:	48 29 c3             	sub    %rax,%rbx
  402204:	48 01 c5             	add    %rax,%rbp
  402207:	48 85 db             	test   %rbx,%rbx
  40220a:	75 d3                	jne    4021df <rio_writen+0x18>
  40220c:	4c 89 e8             	mov    %r13,%rax
  40220f:	eb 07                	jmp    402218 <rio_writen+0x51>
  402211:	48 c7 c0 ff ff ff ff 	mov    $0xffffffffffffffff,%rax
  402218:	48 83 c4 08          	add    $0x8,%rsp
  40221c:	5b                   	pop    %rbx
  40221d:	5d                   	pop    %rbp
  40221e:	41 5c                	pop    %r12
  402220:	41 5d                	pop    %r13
  402222:	c3                   	retq   

0000000000402223 <rio_read>:
  402223:	41 55                	push   %r13
  402225:	41 54                	push   %r12
  402227:	55                   	push   %rbp
  402228:	53                   	push   %rbx
  402229:	48 83 ec 08          	sub    $0x8,%rsp
  40222d:	48 89 fb             	mov    %rdi,%rbx
  402230:	49 89 f5             	mov    %rsi,%r13
  402233:	49 89 d4             	mov    %rdx,%r12
  402236:	eb 2e                	jmp    402266 <rio_read+0x43>
  402238:	48 8d 6b 10          	lea    0x10(%rbx),%rbp
  40223c:	8b 3b                	mov    (%rbx),%edi
  40223e:	ba 00 20 00 00       	mov    $0x2000,%edx
  402243:	48 89 ee             	mov    %rbp,%rsi
  402246:	e8 f5 ea ff ff       	callq  400d40 <read@plt>
  40224b:	89 43 04             	mov    %eax,0x4(%rbx)
  40224e:	85 c0                	test   %eax,%eax
  402250:	79 0c                	jns    40225e <rio_read+0x3b>
  402252:	e8 39 ea ff ff       	callq  400c90 <__errno_location@plt>
  402257:	83 38 04             	cmpl   $0x4,(%rax)
  40225a:	74 0a                	je     402266 <rio_read+0x43>
  40225c:	eb 37                	jmp    402295 <rio_read+0x72>
  40225e:	85 c0                	test   %eax,%eax
  402260:	74 3c                	je     40229e <rio_read+0x7b>
  402262:	48 89 6b 08          	mov    %rbp,0x8(%rbx)
  402266:	8b 6b 04             	mov    0x4(%rbx),%ebp
  402269:	85 ed                	test   %ebp,%ebp
  40226b:	7e cb                	jle    402238 <rio_read+0x15>
  40226d:	89 e8                	mov    %ebp,%eax
  40226f:	49 39 c4             	cmp    %rax,%r12
  402272:	77 03                	ja     402277 <rio_read+0x54>
  402274:	44 89 e5             	mov    %r12d,%ebp
  402277:	4c 63 e5             	movslq %ebp,%r12
  40227a:	48 8b 73 08          	mov    0x8(%rbx),%rsi
  40227e:	4c 89 e2             	mov    %r12,%rdx
  402281:	4c 89 ef             	mov    %r13,%rdi
  402284:	e8 17 eb ff ff       	callq  400da0 <memcpy@plt>
  402289:	4c 01 63 08          	add    %r12,0x8(%rbx)
  40228d:	29 6b 04             	sub    %ebp,0x4(%rbx)
  402290:	4c 89 e0             	mov    %r12,%rax
  402293:	eb 0e                	jmp    4022a3 <rio_read+0x80>
  402295:	48 c7 c0 ff ff ff ff 	mov    $0xffffffffffffffff,%rax
  40229c:	eb 05                	jmp    4022a3 <rio_read+0x80>
  40229e:	b8 00 00 00 00       	mov    $0x0,%eax
  4022a3:	48 83 c4 08          	add    $0x8,%rsp
  4022a7:	5b                   	pop    %rbx
  4022a8:	5d                   	pop    %rbp
  4022a9:	41 5c                	pop    %r12
  4022ab:	41 5d                	pop    %r13
  4022ad:	c3                   	retq   

00000000004022ae <rio_readlineb>:
  4022ae:	41 55                	push   %r13
  4022b0:	41 54                	push   %r12
  4022b2:	55                   	push   %rbp
  4022b3:	53                   	push   %rbx
  4022b4:	48 83 ec 18          	sub    $0x18,%rsp
  4022b8:	49 89 fd             	mov    %rdi,%r13
  4022bb:	48 89 f5             	mov    %rsi,%rbp
  4022be:	49 89 d4             	mov    %rdx,%r12
  4022c1:	64 48 8b 04 25 28 00 	mov    %fs:0x28,%rax
  4022c8:	00 00 
  4022ca:	48 89 44 24 08       	mov    %rax,0x8(%rsp)
  4022cf:	31 c0                	xor    %eax,%eax
  4022d1:	bb 01 00 00 00       	mov    $0x1,%ebx
  4022d6:	eb 3f                	jmp    402317 <rio_readlineb+0x69>
  4022d8:	ba 01 00 00 00       	mov    $0x1,%edx
  4022dd:	48 8d 74 24 07       	lea    0x7(%rsp),%rsi
  4022e2:	4c 89 ef             	mov    %r13,%rdi
  4022e5:	e8 39 ff ff ff       	callq  402223 <rio_read>
  4022ea:	83 f8 01             	cmp    $0x1,%eax
  4022ed:	75 15                	jne    402304 <rio_readlineb+0x56>
  4022ef:	48 8d 45 01          	lea    0x1(%rbp),%rax
  4022f3:	0f b6 54 24 07       	movzbl 0x7(%rsp),%edx
  4022f8:	88 55 00             	mov    %dl,0x0(%rbp)
  4022fb:	80 7c 24 07 0a       	cmpb   $0xa,0x7(%rsp)
  402300:	75 0e                	jne    402310 <rio_readlineb+0x62>
  402302:	eb 1a                	jmp    40231e <rio_readlineb+0x70>
  402304:	85 c0                	test   %eax,%eax
  402306:	75 22                	jne    40232a <rio_readlineb+0x7c>
  402308:	48 83 fb 01          	cmp    $0x1,%rbx
  40230c:	75 13                	jne    402321 <rio_readlineb+0x73>
  40230e:	eb 23                	jmp    402333 <rio_readlineb+0x85>
  402310:	48 83 c3 01          	add    $0x1,%rbx
  402314:	48 89 c5             	mov    %rax,%rbp
  402317:	4c 39 e3             	cmp    %r12,%rbx
  40231a:	72 bc                	jb     4022d8 <rio_readlineb+0x2a>
  40231c:	eb 03                	jmp    402321 <rio_readlineb+0x73>
  40231e:	48 89 c5             	mov    %rax,%rbp
  402321:	c6 45 00 00          	movb   $0x0,0x0(%rbp)
  402325:	48 89 d8             	mov    %rbx,%rax
  402328:	eb 0e                	jmp    402338 <rio_readlineb+0x8a>
  40232a:	48 c7 c0 ff ff ff ff 	mov    $0xffffffffffffffff,%rax
  402331:	eb 05                	jmp    402338 <rio_readlineb+0x8a>
  402333:	b8 00 00 00 00       	mov    $0x0,%eax
  402338:	48 8b 4c 24 08       	mov    0x8(%rsp),%rcx
  40233d:	64 48 33 0c 25 28 00 	xor    %fs:0x28,%rcx
  402344:	00 00 
  402346:	74 05                	je     40234d <rio_readlineb+0x9f>
  402348:	e8 a3 e9 ff ff       	callq  400cf0 <__stack_chk_fail@plt>
  40234d:	48 83 c4 18          	add    $0x18,%rsp
  402351:	5b                   	pop    %rbx
  402352:	5d                   	pop    %rbp
  402353:	41 5c                	pop    %r12
  402355:	41 5d                	pop    %r13
  402357:	c3                   	retq   

0000000000402358 <urlencode>:
  402358:	41 54                	push   %r12
  40235a:	55                   	push   %rbp
  40235b:	53                   	push   %rbx
  40235c:	48 83 ec 10          	sub    $0x10,%rsp
  402360:	48 89 fb             	mov    %rdi,%rbx
  402363:	48 89 f5             	mov    %rsi,%rbp
  402366:	64 48 8b 04 25 28 00 	mov    %fs:0x28,%rax
  40236d:	00 00 
  40236f:	48 89 44 24 08       	mov    %rax,0x8(%rsp)
  402374:	31 c0                	xor    %eax,%eax
  402376:	48 c7 c1 ff ff ff ff 	mov    $0xffffffffffffffff,%rcx
  40237d:	f2 ae                	repnz scas %es:(%rdi),%al
  40237f:	48 f7 d1             	not    %rcx
  402382:	8d 41 ff             	lea    -0x1(%rcx),%eax
  402385:	e9 aa 00 00 00       	jmpq   402434 <urlencode+0xdc>
  40238a:	44 0f b6 03          	movzbl (%rbx),%r8d
  40238e:	41 80 f8 2a          	cmp    $0x2a,%r8b
  402392:	0f 94 c2             	sete   %dl
  402395:	41 80 f8 2d          	cmp    $0x2d,%r8b
  402399:	0f 94 c0             	sete   %al
  40239c:	08 c2                	or     %al,%dl
  40239e:	75 24                	jne    4023c4 <urlencode+0x6c>
  4023a0:	41 80 f8 2e          	cmp    $0x2e,%r8b
  4023a4:	74 1e                	je     4023c4 <urlencode+0x6c>
  4023a6:	41 80 f8 5f          	cmp    $0x5f,%r8b
  4023aa:	74 18                	je     4023c4 <urlencode+0x6c>
  4023ac:	41 8d 40 d0          	lea    -0x30(%r8),%eax
  4023b0:	3c 09                	cmp    $0x9,%al
  4023b2:	76 10                	jbe    4023c4 <urlencode+0x6c>
  4023b4:	41 8d 40 bf          	lea    -0x41(%r8),%eax
  4023b8:	3c 19                	cmp    $0x19,%al
  4023ba:	76 08                	jbe    4023c4 <urlencode+0x6c>
  4023bc:	41 8d 40 9f          	lea    -0x61(%r8),%eax
  4023c0:	3c 19                	cmp    $0x19,%al
  4023c2:	77 0a                	ja     4023ce <urlencode+0x76>
  4023c4:	44 88 45 00          	mov    %r8b,0x0(%rbp)
  4023c8:	48 8d 6d 01          	lea    0x1(%rbp),%rbp
  4023cc:	eb 5f                	jmp    40242d <urlencode+0xd5>
  4023ce:	41 80 f8 20          	cmp    $0x20,%r8b
  4023d2:	75 0a                	jne    4023de <urlencode+0x86>
  4023d4:	c6 45 00 2b          	movb   $0x2b,0x0(%rbp)
  4023d8:	48 8d 6d 01          	lea    0x1(%rbp),%rbp
  4023dc:	eb 4f                	jmp    40242d <urlencode+0xd5>
  4023de:	41 8d 40 e0          	lea    -0x20(%r8),%eax
  4023e2:	3c 5f                	cmp    $0x5f,%al
  4023e4:	0f 96 c2             	setbe  %dl
  4023e7:	41 80 f8 09          	cmp    $0x9,%r8b
  4023eb:	0f 94 c0             	sete   %al
  4023ee:	08 c2                	or     %al,%dl
  4023f0:	74 50                	je     402442 <urlencode+0xea>
  4023f2:	45 0f b6 c0          	movzbl %r8b,%r8d
  4023f6:	b9 58 37 40 00       	mov    $0x403758,%ecx
  4023fb:	ba 08 00 00 00       	mov    $0x8,%edx
  402400:	be 01 00 00 00       	mov    $0x1,%esi
  402405:	48 89 e7             	mov    %rsp,%rdi
  402408:	b8 00 00 00 00       	mov    $0x0,%eax
  40240d:	e8 6e ea ff ff       	callq  400e80 <__sprintf_chk@plt>
  402412:	0f b6 04 24          	movzbl (%rsp),%eax
  402416:	88 45 00             	mov    %al,0x0(%rbp)
  402419:	0f b6 44 24 01       	movzbl 0x1(%rsp),%eax
  40241e:	88 45 01             	mov    %al,0x1(%rbp)
  402421:	0f b6 44 24 02       	movzbl 0x2(%rsp),%eax
  402426:	88 45 02             	mov    %al,0x2(%rbp)
  402429:	48 8d 6d 03          	lea    0x3(%rbp),%rbp
  40242d:	48 83 c3 01          	add    $0x1,%rbx
  402431:	44 89 e0             	mov    %r12d,%eax
  402434:	44 8d 60 ff          	lea    -0x1(%rax),%r12d
  402438:	85 c0                	test   %eax,%eax
  40243a:	0f 85 4a ff ff ff    	jne    40238a <urlencode+0x32>
  402440:	eb 05                	jmp    402447 <urlencode+0xef>
  402442:	b8 ff ff ff ff       	mov    $0xffffffff,%eax
  402447:	48 8b 74 24 08       	mov    0x8(%rsp),%rsi
  40244c:	64 48 33 34 25 28 00 	xor    %fs:0x28,%rsi
  402453:	00 00 
  402455:	74 05                	je     40245c <urlencode+0x104>
  402457:	e8 94 e8 ff ff       	callq  400cf0 <__stack_chk_fail@plt>
  40245c:	48 83 c4 10          	add    $0x10,%rsp
  402460:	5b                   	pop    %rbx
  402461:	5d                   	pop    %rbp
  402462:	41 5c                	pop    %r12
  402464:	c3                   	retq   

0000000000402465 <submitr>:
  402465:	41 57                	push   %r15
  402467:	41 56                	push   %r14
  402469:	41 55                	push   %r13
  40246b:	41 54                	push   %r12
  40246d:	55                   	push   %rbp
  40246e:	53                   	push   %rbx
  40246f:	48 81 ec 58 a0 00 00 	sub    $0xa058,%rsp
  402476:	49 89 fc             	mov    %rdi,%r12
  402479:	89 74 24 04          	mov    %esi,0x4(%rsp)
  40247d:	49 89 d7             	mov    %rdx,%r15
  402480:	49 89 ce             	mov    %rcx,%r14
  402483:	4c 89 44 24 08       	mov    %r8,0x8(%rsp)
  402488:	4d 89 cd             	mov    %r9,%r13
  40248b:	48 8b 9c 24 90 a0 00 	mov    0xa090(%rsp),%rbx
  402492:	00 
  402493:	64 48 8b 04 25 28 00 	mov    %fs:0x28,%rax
  40249a:	00 00 
  40249c:	48 89 84 24 48 a0 00 	mov    %rax,0xa048(%rsp)
  4024a3:	00 
  4024a4:	31 c0                	xor    %eax,%eax
  4024a6:	c7 44 24 1c 00 00 00 	movl   $0x0,0x1c(%rsp)
  4024ad:	00 
  4024ae:	ba 00 00 00 00       	mov    $0x0,%edx
  4024b3:	be 01 00 00 00       	mov    $0x1,%esi
  4024b8:	bf 02 00 00 00       	mov    $0x2,%edi
  4024bd:	e8 ce e9 ff ff       	callq  400e90 <socket@plt>
  4024c2:	85 c0                	test   %eax,%eax
  4024c4:	79 4e                	jns    402514 <submitr+0xaf>
  4024c6:	48 b8 45 72 72 6f 72 	movabs $0x43203a726f727245,%rax
  4024cd:	3a 20 43 
  4024d0:	48 89 03             	mov    %rax,(%rbx)
  4024d3:	48 b8 6c 69 65 6e 74 	movabs $0x6e7520746e65696c,%rax
  4024da:	20 75 6e 
  4024dd:	48 89 43 08          	mov    %rax,0x8(%rbx)
  4024e1:	48 b8 61 62 6c 65 20 	movabs $0x206f7420656c6261,%rax
  4024e8:	74 6f 20 
  4024eb:	48 89 43 10          	mov    %rax,0x10(%rbx)
  4024ef:	48 b8 63 72 65 61 74 	movabs $0x7320657461657263,%rax
  4024f6:	65 20 73 
  4024f9:	48 89 43 18          	mov    %rax,0x18(%rbx)
  4024fd:	c7 43 20 6f 63 6b 65 	movl   $0x656b636f,0x20(%rbx)
  402504:	66 c7 43 24 74 00    	movw   $0x74,0x24(%rbx)
  40250a:	b8 ff ff ff ff       	mov    $0xffffffff,%eax
  40250f:	e9 97 06 00 00       	jmpq   402bab <submitr+0x746>
  402514:	89 c5                	mov    %eax,%ebp
  402516:	4c 89 e7             	mov    %r12,%rdi
  402519:	e8 52 e8 ff ff       	callq  400d70 <gethostbyname@plt>
  40251e:	48 85 c0             	test   %rax,%rax
  402521:	75 67                	jne    40258a <submitr+0x125>
  402523:	48 b8 45 72 72 6f 72 	movabs $0x44203a726f727245,%rax
  40252a:	3a 20 44 
  40252d:	48 89 03             	mov    %rax,(%rbx)
  402530:	48 b8 4e 53 20 69 73 	movabs $0x6e7520736920534e,%rax
  402537:	20 75 6e 
  40253a:	48 89 43 08          	mov    %rax,0x8(%rbx)
  40253e:	48 b8 61 62 6c 65 20 	movabs $0x206f7420656c6261,%rax
  402545:	74 6f 20 
  402548:	48 89 43 10          	mov    %rax,0x10(%rbx)
  40254c:	48 b8 72 65 73 6f 6c 	movabs $0x2065766c6f736572,%rax
  402553:	76 65 20 
  402556:	48 89 43 18          	mov    %rax,0x18(%rbx)
  40255a:	48 b8 73 65 72 76 65 	movabs $0x6120726576726573,%rax
  402561:	72 20 61 
  402564:	48 89 43 20          	mov    %rax,0x20(%rbx)
  402568:	c7 43 28 64 64 72 65 	movl   $0x65726464,0x28(%rbx)
  40256f:	66 c7 43 2c 73 73    	movw   $0x7373,0x2c(%rbx)
  402575:	c6 43 2e 00          	movb   $0x0,0x2e(%rbx)
  402579:	89 ef                	mov    %ebp,%edi
  40257b:	e8 b0 e7 ff ff       	callq  400d30 <close@plt>
  402580:	b8 ff ff ff ff       	mov    $0xffffffff,%eax
  402585:	e9 21 06 00 00       	jmpq   402bab <submitr+0x746>
  40258a:	48 c7 44 24 20 00 00 	movq   $0x0,0x20(%rsp)
  402591:	00 00 
  402593:	48 c7 44 24 28 00 00 	movq   $0x0,0x28(%rsp)
  40259a:	00 00 
  40259c:	66 c7 44 24 20 02 00 	movw   $0x2,0x20(%rsp)
  4025a3:	48 63 50 14          	movslq 0x14(%rax),%rdx
  4025a7:	48 8b 40 18          	mov    0x18(%rax),%rax
  4025ab:	48 8b 30             	mov    (%rax),%rsi
  4025ae:	48 8d 7c 24 24       	lea    0x24(%rsp),%rdi
  4025b3:	b9 0c 00 00 00       	mov    $0xc,%ecx
  4025b8:	e8 c3 e7 ff ff       	callq  400d80 <__memmove_chk@plt>
  4025bd:	0f b7 44 24 04       	movzwl 0x4(%rsp),%eax
  4025c2:	66 c1 c8 08          	ror    $0x8,%ax
  4025c6:	66 89 44 24 22       	mov    %ax,0x22(%rsp)
  4025cb:	ba 10 00 00 00       	mov    $0x10,%edx
  4025d0:	48 8d 74 24 20       	lea    0x20(%rsp),%rsi
  4025d5:	89 ef                	mov    %ebp,%edi
  4025d7:	e8 84 e8 ff ff       	callq  400e60 <connect@plt>
  4025dc:	85 c0                	test   %eax,%eax
  4025de:	79 59                	jns    402639 <submitr+0x1d4>
  4025e0:	48 b8 45 72 72 6f 72 	movabs $0x55203a726f727245,%rax
  4025e7:	3a 20 55 
  4025ea:	48 89 03             	mov    %rax,(%rbx)
  4025ed:	48 b8 6e 61 62 6c 65 	movabs $0x6f7420656c62616e,%rax
  4025f4:	20 74 6f 
  4025f7:	48 89 43 08          	mov    %rax,0x8(%rbx)
  4025fb:	48 b8 20 63 6f 6e 6e 	movabs $0x7463656e6e6f6320,%rax
  402602:	65 63 74 
  402605:	48 89 43 10          	mov    %rax,0x10(%rbx)
  402609:	48 b8 20 74 6f 20 74 	movabs $0x20656874206f7420,%rax
  402610:	68 65 20 
  402613:	48 89 43 18          	mov    %rax,0x18(%rbx)
  402617:	c7 43 20 73 65 72 76 	movl   $0x76726573,0x20(%rbx)
  40261e:	66 c7 43 24 65 72    	movw   $0x7265,0x24(%rbx)
  402624:	c6 43 26 00          	movb   $0x0,0x26(%rbx)
  402628:	89 ef                	mov    %ebp,%edi
  40262a:	e8 01 e7 ff ff       	callq  400d30 <close@plt>
  40262f:	b8 ff ff ff ff       	mov    $0xffffffff,%eax
  402634:	e9 72 05 00 00       	jmpq   402bab <submitr+0x746>
  402639:	48 c7 c6 ff ff ff ff 	mov    $0xffffffffffffffff,%rsi
  402640:	b8 00 00 00 00       	mov    $0x0,%eax
  402645:	48 89 f1             	mov    %rsi,%rcx
  402648:	4c 89 ef             	mov    %r13,%rdi
  40264b:	f2 ae                	repnz scas %es:(%rdi),%al
  40264d:	48 f7 d1             	not    %rcx
  402650:	48 89 ca             	mov    %rcx,%rdx
  402653:	48 89 f1             	mov    %rsi,%rcx
  402656:	4c 89 ff             	mov    %r15,%rdi
  402659:	f2 ae                	repnz scas %es:(%rdi),%al
  40265b:	48 f7 d1             	not    %rcx
  40265e:	49 89 c8             	mov    %rcx,%r8
  402661:	48 89 f1             	mov    %rsi,%rcx
  402664:	4c 89 f7             	mov    %r14,%rdi
  402667:	f2 ae                	repnz scas %es:(%rdi),%al
  402669:	48 f7 d1             	not    %rcx
  40266c:	4d 8d 44 08 fe       	lea    -0x2(%r8,%rcx,1),%r8
  402671:	48 89 f1             	mov    %rsi,%rcx
  402674:	48 8b 7c 24 08       	mov    0x8(%rsp),%rdi
  402679:	f2 ae                	repnz scas %es:(%rdi),%al
  40267b:	48 89 c8             	mov    %rcx,%rax
  40267e:	48 f7 d0             	not    %rax
  402681:	49 8d 4c 00 ff       	lea    -0x1(%r8,%rax,1),%rcx
  402686:	48 8d 44 52 fd       	lea    -0x3(%rdx,%rdx,2),%rax
  40268b:	48 8d 84 01 80 00 00 	lea    0x80(%rcx,%rax,1),%rax
  402692:	00 
  402693:	48 3d 00 20 00 00    	cmp    $0x2000,%rax
  402699:	76 72                	jbe    40270d <submitr+0x2a8>
  40269b:	48 b8 45 72 72 6f 72 	movabs $0x52203a726f727245,%rax
  4026a2:	3a 20 52 
  4026a5:	48 89 03             	mov    %rax,(%rbx)
  4026a8:	48 b8 65 73 75 6c 74 	movabs $0x747320746c757365,%rax
  4026af:	20 73 74 
  4026b2:	48 89 43 08          	mov    %rax,0x8(%rbx)
  4026b6:	48 b8 72 69 6e 67 20 	movabs $0x6f6f7420676e6972,%rax
  4026bd:	74 6f 6f 
  4026c0:	48 89 43 10          	mov    %rax,0x10(%rbx)
  4026c4:	48 b8 20 6c 61 72 67 	movabs $0x202e656772616c20,%rax
  4026cb:	65 2e 20 
  4026ce:	48 89 43 18          	mov    %rax,0x18(%rbx)
  4026d2:	48 b8 49 6e 63 72 65 	movabs $0x6573616572636e49,%rax
  4026d9:	61 73 65 
  4026dc:	48 89 43 20          	mov    %rax,0x20(%rbx)
  4026e0:	48 b8 20 53 55 42 4d 	movabs $0x5254494d42555320,%rax
  4026e7:	49 54 52 
  4026ea:	48 89 43 28          	mov    %rax,0x28(%rbx)
  4026ee:	48 b8 5f 4d 41 58 42 	movabs $0x46554258414d5f,%rax
  4026f5:	55 46 00 
  4026f8:	48 89 43 30          	mov    %rax,0x30(%rbx)
  4026fc:	89 ef                	mov    %ebp,%edi
  4026fe:	e8 2d e6 ff ff       	callq  400d30 <close@plt>
  402703:	b8 ff ff ff ff       	mov    $0xffffffff,%eax
  402708:	e9 9e 04 00 00       	jmpq   402bab <submitr+0x746>
  40270d:	48 8d b4 24 40 40 00 	lea    0x4040(%rsp),%rsi
  402714:	00 
  402715:	b9 00 04 00 00       	mov    $0x400,%ecx
  40271a:	b8 00 00 00 00       	mov    $0x0,%eax
  40271f:	48 89 f7             	mov    %rsi,%rdi
  402722:	f3 48 ab             	rep stos %rax,%es:(%rdi)
  402725:	4c 89 ef             	mov    %r13,%rdi
  402728:	e8 2b fc ff ff       	callq  402358 <urlencode>
  40272d:	85 c0                	test   %eax,%eax
  40272f:	0f 89 8a 00 00 00    	jns    4027bf <submitr+0x35a>
  402735:	48 b8 45 72 72 6f 72 	movabs $0x52203a726f727245,%rax
  40273c:	3a 20 52 
  40273f:	48 89 03             	mov    %rax,(%rbx)
  402742:	48 b8 65 73 75 6c 74 	movabs $0x747320746c757365,%rax
  402749:	20 73 74 
  40274c:	48 89 43 08          	mov    %rax,0x8(%rbx)
  402750:	48 b8 72 69 6e 67 20 	movabs $0x6e6f6320676e6972,%rax
  402757:	63 6f 6e 
  40275a:	48 89 43 10          	mov    %rax,0x10(%rbx)
  40275e:	48 b8 74 61 69 6e 73 	movabs $0x6e6120736e696174,%rax
  402765:	20 61 6e 
  402768:	48 89 43 18          	mov    %rax,0x18(%rbx)
  40276c:	48 b8 20 69 6c 6c 65 	movabs $0x6c6167656c6c6920,%rax
  402773:	67 61 6c 
  402776:	48 89 43 20          	mov    %rax,0x20(%rbx)
  40277a:	48 b8 20 6f 72 20 75 	movabs $0x72706e7520726f20,%rax
  402781:	6e 70 72 
  402784:	48 89 43 28          	mov    %rax,0x28(%rbx)
  402788:	48 b8 69 6e 74 61 62 	movabs $0x20656c6261746e69,%rax
  40278f:	6c 65 20 
  402792:	48 89 43 30          	mov    %rax,0x30(%rbx)
  402796:	48 b8 63 68 61 72 61 	movabs $0x6574636172616863,%rax
  40279d:	63 74 65 
  4027a0:	48 89 43 38          	mov    %rax,0x38(%rbx)
  4027a4:	66 c7 43 40 72 2e    	movw   $0x2e72,0x40(%rbx)
  4027aa:	c6 43 42 00          	movb   $0x0,0x42(%rbx)
  4027ae:	89 ef                	mov    %ebp,%edi
  4027b0:	e8 7b e5 ff ff       	callq  400d30 <close@plt>
  4027b5:	b8 ff ff ff ff       	mov    $0xffffffff,%eax
  4027ba:	e9 ec 03 00 00       	jmpq   402bab <submitr+0x746>
  4027bf:	4c 8d ac 24 40 20 00 	lea    0x2040(%rsp),%r13
  4027c6:	00 
  4027c7:	41 54                	push   %r12
  4027c9:	48 8d 84 24 48 40 00 	lea    0x4048(%rsp),%rax
  4027d0:	00 
  4027d1:	50                   	push   %rax
  4027d2:	4d 89 f9             	mov    %r15,%r9
  4027d5:	4d 89 f0             	mov    %r14,%r8
  4027d8:	b9 e8 36 40 00       	mov    $0x4036e8,%ecx
  4027dd:	ba 00 20 00 00       	mov    $0x2000,%edx
  4027e2:	be 01 00 00 00       	mov    $0x1,%esi
  4027e7:	4c 89 ef             	mov    %r13,%rdi
  4027ea:	b8 00 00 00 00       	mov    $0x0,%eax
  4027ef:	e8 8c e6 ff ff       	callq  400e80 <__sprintf_chk@plt>
  4027f4:	b8 00 00 00 00       	mov    $0x0,%eax
  4027f9:	48 c7 c1 ff ff ff ff 	mov    $0xffffffffffffffff,%rcx
  402800:	4c 89 ef             	mov    %r13,%rdi
  402803:	f2 ae                	repnz scas %es:(%rdi),%al
  402805:	48 f7 d1             	not    %rcx
  402808:	48 8d 51 ff          	lea    -0x1(%rcx),%rdx
  40280c:	4c 89 ee             	mov    %r13,%rsi
  40280f:	89 ef                	mov    %ebp,%edi
  402811:	e8 b1 f9 ff ff       	callq  4021c7 <rio_writen>
  402816:	48 83 c4 10          	add    $0x10,%rsp
  40281a:	48 85 c0             	test   %rax,%rax
  40281d:	79 6e                	jns    40288d <submitr+0x428>
  40281f:	48 b8 45 72 72 6f 72 	movabs $0x43203a726f727245,%rax
  402826:	3a 20 43 
  402829:	48 89 03             	mov    %rax,(%rbx)
  40282c:	48 b8 6c 69 65 6e 74 	movabs $0x6e7520746e65696c,%rax
  402833:	20 75 6e 
  402836:	48 89 43 08          	mov    %rax,0x8(%rbx)
  40283a:	48 b8 61 62 6c 65 20 	movabs $0x206f7420656c6261,%rax
  402841:	74 6f 20 
  402844:	48 89 43 10          	mov    %rax,0x10(%rbx)
  402848:	48 b8 77 72 69 74 65 	movabs $0x6f74206574697277,%rax
  40284f:	20 74 6f 
  402852:	48 89 43 18          	mov    %rax,0x18(%rbx)
  402856:	48 b8 20 74 68 65 20 	movabs $0x7365722065687420,%rax
  40285d:	72 65 73 
  402860:	48 89 43 20          	mov    %rax,0x20(%rbx)
  402864:	48 b8 75 6c 74 20 73 	movabs $0x7672657320746c75,%rax
  40286b:	65 72 76 
  40286e:	48 89 43 28          	mov    %rax,0x28(%rbx)
  402872:	66 c7 43 30 65 72    	movw   $0x7265,0x30(%rbx)
  402878:	c6 43 32 00          	movb   $0x0,0x32(%rbx)
  40287c:	89 ef                	mov    %ebp,%edi
  40287e:	e8 ad e4 ff ff       	callq  400d30 <close@plt>
  402883:	b8 ff ff ff ff       	mov    $0xffffffff,%eax
  402888:	e9 1e 03 00 00       	jmpq   402bab <submitr+0x746>
  40288d:	89 ee                	mov    %ebp,%esi
  40288f:	48 8d 7c 24 30       	lea    0x30(%rsp),%rdi
  402894:	e8 ee f8 ff ff       	callq  402187 <rio_readinitb>
  402899:	ba 00 20 00 00       	mov    $0x2000,%edx
  40289e:	48 8d b4 24 40 20 00 	lea    0x2040(%rsp),%rsi
  4028a5:	00 
  4028a6:	48 8d 7c 24 30       	lea    0x30(%rsp),%rdi
  4028ab:	e8 fe f9 ff ff       	callq  4022ae <rio_readlineb>
  4028b0:	48 85 c0             	test   %rax,%rax
  4028b3:	7f 7d                	jg     402932 <submitr+0x4cd>
  4028b5:	48 b8 45 72 72 6f 72 	movabs $0x43203a726f727245,%rax
  4028bc:	3a 20 43 
  4028bf:	48 89 03             	mov    %rax,(%rbx)
  4028c2:	48 b8 6c 69 65 6e 74 	movabs $0x6e7520746e65696c,%rax
  4028c9:	20 75 6e 
  4028cc:	48 89 43 08          	mov    %rax,0x8(%rbx)
  4028d0:	48 b8 61 62 6c 65 20 	movabs $0x206f7420656c6261,%rax
  4028d7:	74 6f 20 
  4028da:	48 89 43 10          	mov    %rax,0x10(%rbx)
  4028de:	48 b8 72 65 61 64 20 	movabs $0x7269662064616572,%rax
  4028e5:	66 69 72 
  4028e8:	48 89 43 18          	mov    %rax,0x18(%rbx)
  4028ec:	48 b8 73 74 20 68 65 	movabs $0x6564616568207473,%rax
  4028f3:	61 64 65 
  4028f6:	48 89 43 20          	mov    %rax,0x20(%rbx)
  4028fa:	48 b8 72 20 66 72 6f 	movabs $0x72206d6f72662072,%rax
  402901:	6d 20 72 
  402904:	48 89 43 28          	mov    %rax,0x28(%rbx)
  402908:	48 b8 65 73 75 6c 74 	movabs $0x657320746c757365,%rax
  40290f:	20 73 65 
  402912:	48 89 43 30          	mov    %rax,0x30(%rbx)
  402916:	c7 43 38 72 76 65 72 	movl   $0x72657672,0x38(%rbx)
  40291d:	c6 43 3c 00          	movb   $0x0,0x3c(%rbx)
  402921:	89 ef                	mov    %ebp,%edi
  402923:	e8 08 e4 ff ff       	callq  400d30 <close@plt>
  402928:	b8 ff ff ff ff       	mov    $0xffffffff,%eax
  40292d:	e9 79 02 00 00       	jmpq   402bab <submitr+0x746>
  402932:	4c 8d 84 24 40 80 00 	lea    0x8040(%rsp),%r8
  402939:	00 
  40293a:	48 8d 4c 24 1c       	lea    0x1c(%rsp),%rcx
  40293f:	48 8d 94 24 40 60 00 	lea    0x6040(%rsp),%rdx
  402946:	00 
  402947:	be 5f 37 40 00       	mov    $0x40375f,%esi
  40294c:	48 8d bc 24 40 20 00 	lea    0x2040(%rsp),%rdi
  402953:	00 
  402954:	b8 00 00 00 00       	mov    $0x0,%eax
  402959:	e8 82 e4 ff ff       	callq  400de0 <__isoc99_sscanf@plt>
  40295e:	e9 95 00 00 00       	jmpq   4029f8 <submitr+0x593>
  402963:	ba 00 20 00 00       	mov    $0x2000,%edx
  402968:	48 8d b4 24 40 20 00 	lea    0x2040(%rsp),%rsi
  40296f:	00 
  402970:	48 8d 7c 24 30       	lea    0x30(%rsp),%rdi
  402975:	e8 34 f9 ff ff       	callq  4022ae <rio_readlineb>
  40297a:	48 85 c0             	test   %rax,%rax
  40297d:	7f 79                	jg     4029f8 <submitr+0x593>
  40297f:	48 b8 45 72 72 6f 72 	movabs $0x43203a726f727245,%rax
  402986:	3a 20 43 
  402989:	48 89 03             	mov    %rax,(%rbx)
  40298c:	48 b8 6c 69 65 6e 74 	movabs $0x6e7520746e65696c,%rax
  402993:	20 75 6e 
  402996:	48 89 43 08          	mov    %rax,0x8(%rbx)
  40299a:	48 b8 61 62 6c 65 20 	movabs $0x206f7420656c6261,%rax
  4029a1:	74 6f 20 
  4029a4:	48 89 43 10          	mov    %rax,0x10(%rbx)
  4029a8:	48 b8 72 65 61 64 20 	movabs $0x6165682064616572,%rax
  4029af:	68 65 61 
  4029b2:	48 89 43 18          	mov    %rax,0x18(%rbx)
  4029b6:	48 b8 64 65 72 73 20 	movabs $0x6f72662073726564,%rax
  4029bd:	66 72 6f 
  4029c0:	48 89 43 20          	mov    %rax,0x20(%rbx)
  4029c4:	48 b8 6d 20 74 68 65 	movabs $0x657220656874206d,%rax
  4029cb:	20 72 65 
  4029ce:	48 89 43 28          	mov    %rax,0x28(%rbx)
  4029d2:	48 b8 73 75 6c 74 20 	movabs $0x72657320746c7573,%rax
  4029d9:	73 65 72 
  4029dc:	48 89 43 30          	mov    %rax,0x30(%rbx)
  4029e0:	c7 43 38 76 65 72 00 	movl   $0x726576,0x38(%rbx)
  4029e7:	89 ef                	mov    %ebp,%edi
  4029e9:	e8 42 e3 ff ff       	callq  400d30 <close@plt>
  4029ee:	b8 ff ff ff ff       	mov    $0xffffffff,%eax
  4029f3:	e9 b3 01 00 00       	jmpq   402bab <submitr+0x746>
  4029f8:	0f b6 94 24 40 20 00 	movzbl 0x2040(%rsp),%edx
  4029ff:	00 
  402a00:	b8 0d 00 00 00       	mov    $0xd,%eax
  402a05:	29 d0                	sub    %edx,%eax
  402a07:	75 1b                	jne    402a24 <submitr+0x5bf>
  402a09:	0f b6 94 24 41 20 00 	movzbl 0x2041(%rsp),%edx
  402a10:	00 
  402a11:	b8 0a 00 00 00       	mov    $0xa,%eax
  402a16:	29 d0                	sub    %edx,%eax
  402a18:	75 0a                	jne    402a24 <submitr+0x5bf>
  402a1a:	0f b6 84 24 42 20 00 	movzbl 0x2042(%rsp),%eax
  402a21:	00 
  402a22:	f7 d8                	neg    %eax
  402a24:	85 c0                	test   %eax,%eax
  402a26:	0f 85 37 ff ff ff    	jne    402963 <submitr+0x4fe>
  402a2c:	ba 00 20 00 00       	mov    $0x2000,%edx
  402a31:	48 8d b4 24 40 20 00 	lea    0x2040(%rsp),%rsi
  402a38:	00 
  402a39:	48 8d 7c 24 30       	lea    0x30(%rsp),%rdi
  402a3e:	e8 6b f8 ff ff       	callq  4022ae <rio_readlineb>
  402a43:	48 85 c0             	test   %rax,%rax
  402a46:	0f 8f 83 00 00 00    	jg     402acf <submitr+0x66a>
  402a4c:	48 b8 45 72 72 6f 72 	movabs $0x43203a726f727245,%rax
  402a53:	3a 20 43 
  402a56:	48 89 03             	mov    %rax,(%rbx)
  402a59:	48 b8 6c 69 65 6e 74 	movabs $0x6e7520746e65696c,%rax
  402a60:	20 75 6e 
  402a63:	48 89 43 08          	mov    %rax,0x8(%rbx)
  402a67:	48 b8 61 62 6c 65 20 	movabs $0x206f7420656c6261,%rax
  402a6e:	74 6f 20 
  402a71:	48 89 43 10          	mov    %rax,0x10(%rbx)
  402a75:	48 b8 72 65 61 64 20 	movabs $0x6174732064616572,%rax
  402a7c:	73 74 61 
  402a7f:	48 89 43 18          	mov    %rax,0x18(%rbx)
  402a83:	48 b8 74 75 73 20 6d 	movabs $0x7373656d20737574,%rax
  402a8a:	65 73 73 
  402a8d:	48 89 43 20          	mov    %rax,0x20(%rbx)
  402a91:	48 b8 61 67 65 20 66 	movabs $0x6d6f726620656761,%rax
  402a98:	72 6f 6d 
  402a9b:	48 89 43 28          	mov    %rax,0x28(%rbx)
  402a9f:	48 b8 20 72 65 73 75 	movabs $0x20746c7573657220,%rax
  402aa6:	6c 74 20 
  402aa9:	48 89 43 30          	mov    %rax,0x30(%rbx)
  402aad:	c7 43 38 73 65 72 76 	movl   $0x76726573,0x38(%rbx)
  402ab4:	66 c7 43 3c 65 72    	movw   $0x7265,0x3c(%rbx)
  402aba:	c6 43 3e 00          	movb   $0x0,0x3e(%rbx)
  402abe:	89 ef                	mov    %ebp,%edi
  402ac0:	e8 6b e2 ff ff       	callq  400d30 <close@plt>
  402ac5:	b8 ff ff ff ff       	mov    $0xffffffff,%eax
  402aca:	e9 dc 00 00 00       	jmpq   402bab <submitr+0x746>
  402acf:	44 8b 44 24 1c       	mov    0x1c(%rsp),%r8d
  402ad4:	41 81 f8 c8 00 00 00 	cmp    $0xc8,%r8d
  402adb:	74 37                	je     402b14 <submitr+0x6af>
  402add:	4c 8d 8c 24 40 80 00 	lea    0x8040(%rsp),%r9
  402ae4:	00 
  402ae5:	b9 28 37 40 00       	mov    $0x403728,%ecx
  402aea:	48 c7 c2 ff ff ff ff 	mov    $0xffffffffffffffff,%rdx
  402af1:	be 01 00 00 00       	mov    $0x1,%esi
  402af6:	48 89 df             	mov    %rbx,%rdi
  402af9:	b8 00 00 00 00       	mov    $0x0,%eax
  402afe:	e8 7d e3 ff ff       	callq  400e80 <__sprintf_chk@plt>
  402b03:	89 ef                	mov    %ebp,%edi
  402b05:	e8 26 e2 ff ff       	callq  400d30 <close@plt>
  402b0a:	b8 ff ff ff ff       	mov    $0xffffffff,%eax
  402b0f:	e9 97 00 00 00       	jmpq   402bab <submitr+0x746>
  402b14:	48 8d b4 24 40 20 00 	lea    0x2040(%rsp),%rsi
  402b1b:	00 
  402b1c:	48 89 df             	mov    %rbx,%rdi
  402b1f:	e8 9c e1 ff ff       	callq  400cc0 <strcpy@plt>
  402b24:	89 ef                	mov    %ebp,%edi
  402b26:	e8 05 e2 ff ff       	callq  400d30 <close@plt>
  402b2b:	0f b6 03             	movzbl (%rbx),%eax
  402b2e:	ba 4f 00 00 00       	mov    $0x4f,%edx
  402b33:	29 c2                	sub    %eax,%edx
  402b35:	75 22                	jne    402b59 <submitr+0x6f4>
  402b37:	0f b6 4b 01          	movzbl 0x1(%rbx),%ecx
  402b3b:	b8 4b 00 00 00       	mov    $0x4b,%eax
  402b40:	29 c8                	sub    %ecx,%eax
  402b42:	75 17                	jne    402b5b <submitr+0x6f6>
  402b44:	0f b6 4b 02          	movzbl 0x2(%rbx),%ecx
  402b48:	b8 0a 00 00 00       	mov    $0xa,%eax
  402b4d:	29 c8                	sub    %ecx,%eax
  402b4f:	75 0a                	jne    402b5b <submitr+0x6f6>
  402b51:	0f b6 43 03          	movzbl 0x3(%rbx),%eax
  402b55:	f7 d8                	neg    %eax
  402b57:	eb 02                	jmp    402b5b <submitr+0x6f6>
  402b59:	89 d0                	mov    %edx,%eax
  402b5b:	85 c0                	test   %eax,%eax
  402b5d:	74 40                	je     402b9f <submitr+0x73a>
  402b5f:	bf 70 37 40 00       	mov    $0x403770,%edi
  402b64:	b9 05 00 00 00       	mov    $0x5,%ecx
  402b69:	48 89 de             	mov    %rbx,%rsi
  402b6c:	f3 a6                	repz cmpsb %es:(%rdi),%ds:(%rsi)
  402b6e:	0f 97 c0             	seta   %al
  402b71:	0f 92 c1             	setb   %cl
  402b74:	29 c8                	sub    %ecx,%eax
  402b76:	0f be c0             	movsbl %al,%eax
  402b79:	85 c0                	test   %eax,%eax
  402b7b:	74 2e                	je     402bab <submitr+0x746>
  402b7d:	85 d2                	test   %edx,%edx
  402b7f:	75 13                	jne    402b94 <submitr+0x72f>
  402b81:	0f b6 43 01          	movzbl 0x1(%rbx),%eax
  402b85:	ba 4b 00 00 00       	mov    $0x4b,%edx
  402b8a:	29 c2                	sub    %eax,%edx
  402b8c:	75 06                	jne    402b94 <submitr+0x72f>
  402b8e:	0f b6 53 02          	movzbl 0x2(%rbx),%edx
  402b92:	f7 da                	neg    %edx
  402b94:	85 d2                	test   %edx,%edx
  402b96:	75 0e                	jne    402ba6 <submitr+0x741>
  402b98:	b8 00 00 00 00       	mov    $0x0,%eax
  402b9d:	eb 0c                	jmp    402bab <submitr+0x746>
  402b9f:	b8 00 00 00 00       	mov    $0x0,%eax
  402ba4:	eb 05                	jmp    402bab <submitr+0x746>
  402ba6:	b8 ff ff ff ff       	mov    $0xffffffff,%eax
  402bab:	48 8b 9c 24 48 a0 00 	mov    0xa048(%rsp),%rbx
  402bb2:	00 
  402bb3:	64 48 33 1c 25 28 00 	xor    %fs:0x28,%rbx
  402bba:	00 00 
  402bbc:	74 05                	je     402bc3 <submitr+0x75e>
  402bbe:	e8 2d e1 ff ff       	callq  400cf0 <__stack_chk_fail@plt>
  402bc3:	48 81 c4 58 a0 00 00 	add    $0xa058,%rsp
  402bca:	5b                   	pop    %rbx
  402bcb:	5d                   	pop    %rbp
  402bcc:	41 5c                	pop    %r12
  402bce:	41 5d                	pop    %r13
  402bd0:	41 5e                	pop    %r14
  402bd2:	41 5f                	pop    %r15
  402bd4:	c3                   	retq   

0000000000402bd5 <init_timeout>:
  402bd5:	85 ff                	test   %edi,%edi
  402bd7:	74 23                	je     402bfc <init_timeout+0x27>
  402bd9:	53                   	push   %rbx
  402bda:	89 fb                	mov    %edi,%ebx
  402bdc:	85 ff                	test   %edi,%edi
  402bde:	79 05                	jns    402be5 <init_timeout+0x10>
  402be0:	bb 00 00 00 00       	mov    $0x0,%ebx
  402be5:	be 99 21 40 00       	mov    $0x402199,%esi
  402bea:	bf 0e 00 00 00       	mov    $0xe,%edi
  402bef:	e8 6c e1 ff ff       	callq  400d60 <signal@plt>
  402bf4:	89 df                	mov    %ebx,%edi
  402bf6:	e8 25 e1 ff ff       	callq  400d20 <alarm@plt>
  402bfb:	5b                   	pop    %rbx
  402bfc:	f3 c3                	repz retq 

0000000000402bfe <init_driver>:
  402bfe:	55                   	push   %rbp
  402bff:	53                   	push   %rbx
  402c00:	48 83 ec 28          	sub    $0x28,%rsp
  402c04:	48 89 fd             	mov    %rdi,%rbp
  402c07:	64 48 8b 04 25 28 00 	mov    %fs:0x28,%rax
  402c0e:	00 00 
  402c10:	48 89 44 24 18       	mov    %rax,0x18(%rsp)
  402c15:	31 c0                	xor    %eax,%eax
  402c17:	be 01 00 00 00       	mov    $0x1,%esi
  402c1c:	bf 0d 00 00 00       	mov    $0xd,%edi
  402c21:	e8 3a e1 ff ff       	callq  400d60 <signal@plt>
  402c26:	be 01 00 00 00       	mov    $0x1,%esi
  402c2b:	bf 1d 00 00 00       	mov    $0x1d,%edi
  402c30:	e8 2b e1 ff ff       	callq  400d60 <signal@plt>
  402c35:	be 01 00 00 00       	mov    $0x1,%esi
  402c3a:	bf 1d 00 00 00       	mov    $0x1d,%edi
  402c3f:	e8 1c e1 ff ff       	callq  400d60 <signal@plt>
  402c44:	ba 00 00 00 00       	mov    $0x0,%edx
  402c49:	be 01 00 00 00       	mov    $0x1,%esi
  402c4e:	bf 02 00 00 00       	mov    $0x2,%edi
  402c53:	e8 38 e2 ff ff       	callq  400e90 <socket@plt>
  402c58:	85 c0                	test   %eax,%eax
  402c5a:	79 4f                	jns    402cab <init_driver+0xad>
  402c5c:	48 b8 45 72 72 6f 72 	movabs $0x43203a726f727245,%rax
  402c63:	3a 20 43 
  402c66:	48 89 45 00          	mov    %rax,0x0(%rbp)
  402c6a:	48 b8 6c 69 65 6e 74 	movabs $0x6e7520746e65696c,%rax
  402c71:	20 75 6e 
  402c74:	48 89 45 08          	mov    %rax,0x8(%rbp)
  402c78:	48 b8 61 62 6c 65 20 	movabs $0x206f7420656c6261,%rax
  402c7f:	74 6f 20 
  402c82:	48 89 45 10          	mov    %rax,0x10(%rbp)
  402c86:	48 b8 63 72 65 61 74 	movabs $0x7320657461657263,%rax
  402c8d:	65 20 73 
  402c90:	48 89 45 18          	mov    %rax,0x18(%rbp)
  402c94:	c7 45 20 6f 63 6b 65 	movl   $0x656b636f,0x20(%rbp)
  402c9b:	66 c7 45 24 74 00    	movw   $0x74,0x24(%rbp)
  402ca1:	b8 ff ff ff ff       	mov    $0xffffffff,%eax
  402ca6:	e9 2a 01 00 00       	jmpq   402dd5 <init_driver+0x1d7>
  402cab:	89 c3                	mov    %eax,%ebx
  402cad:	bf 75 37 40 00       	mov    $0x403775,%edi
  402cb2:	e8 b9 e0 ff ff       	callq  400d70 <gethostbyname@plt>
  402cb7:	48 85 c0             	test   %rax,%rax
  402cba:	75 68                	jne    402d24 <init_driver+0x126>
  402cbc:	48 b8 45 72 72 6f 72 	movabs $0x44203a726f727245,%rax
  402cc3:	3a 20 44 
  402cc6:	48 89 45 00          	mov    %rax,0x0(%rbp)
  402cca:	48 b8 4e 53 20 69 73 	movabs $0x6e7520736920534e,%rax
  402cd1:	20 75 6e 
  402cd4:	48 89 45 08          	mov    %rax,0x8(%rbp)
  402cd8:	48 b8 61 62 6c 65 20 	movabs $0x206f7420656c6261,%rax
  402cdf:	74 6f 20 
  402ce2:	48 89 45 10          	mov    %rax,0x10(%rbp)
  402ce6:	48 b8 72 65 73 6f 6c 	movabs $0x2065766c6f736572,%rax
  402ced:	76 65 20 
  402cf0:	48 89 45 18          	mov    %rax,0x18(%rbp)
  402cf4:	48 b8 73 65 72 76 65 	movabs $0x6120726576726573,%rax
  402cfb:	72 20 61 
  402cfe:	48 89 45 20          	mov    %rax,0x20(%rbp)
  402d02:	c7 45 28 64 64 72 65 	movl   $0x65726464,0x28(%rbp)
  402d09:	66 c7 45 2c 73 73    	movw   $0x7373,0x2c(%rbp)
  402d0f:	c6 45 2e 00          	movb   $0x0,0x2e(%rbp)
  402d13:	89 df                	mov    %ebx,%edi
  402d15:	e8 16 e0 ff ff       	callq  400d30 <close@plt>
  402d1a:	b8 ff ff ff ff       	mov    $0xffffffff,%eax
  402d1f:	e9 b1 00 00 00       	jmpq   402dd5 <init_driver+0x1d7>
  402d24:	48 c7 04 24 00 00 00 	movq   $0x0,(%rsp)
  402d2b:	00 
  402d2c:	48 c7 44 24 08 00 00 	movq   $0x0,0x8(%rsp)
  402d33:	00 00 
  402d35:	66 c7 04 24 02 00    	movw   $0x2,(%rsp)
  402d3b:	48 63 50 14          	movslq 0x14(%rax),%rdx
  402d3f:	48 8b 40 18          	mov    0x18(%rax),%rax
  402d43:	48 8b 30             	mov    (%rax),%rsi
  402d46:	48 8d 7c 24 04       	lea    0x4(%rsp),%rdi
  402d4b:	b9 0c 00 00 00       	mov    $0xc,%ecx
  402d50:	e8 2b e0 ff ff       	callq  400d80 <__memmove_chk@plt>
  402d55:	66 c7 44 24 02 3c 9a 	movw   $0x9a3c,0x2(%rsp)
  402d5c:	ba 10 00 00 00       	mov    $0x10,%edx
  402d61:	48 89 e6             	mov    %rsp,%rsi
  402d64:	89 df                	mov    %ebx,%edi
  402d66:	e8 f5 e0 ff ff       	callq  400e60 <connect@plt>
  402d6b:	85 c0                	test   %eax,%eax
  402d6d:	79 50                	jns    402dbf <init_driver+0x1c1>
  402d6f:	48 b8 45 72 72 6f 72 	movabs $0x55203a726f727245,%rax
  402d76:	3a 20 55 
  402d79:	48 89 45 00          	mov    %rax,0x0(%rbp)
  402d7d:	48 b8 6e 61 62 6c 65 	movabs $0x6f7420656c62616e,%rax
  402d84:	20 74 6f 
  402d87:	48 89 45 08          	mov    %rax,0x8(%rbp)
  402d8b:	48 b8 20 63 6f 6e 6e 	movabs $0x7463656e6e6f6320,%rax
  402d92:	65 63 74 
  402d95:	48 89 45 10          	mov    %rax,0x10(%rbp)
  402d99:	48 b8 20 74 6f 20 73 	movabs $0x76726573206f7420,%rax
  402da0:	65 72 76 
  402da3:	48 89 45 18          	mov    %rax,0x18(%rbp)
  402da7:	66 c7 45 20 65 72    	movw   $0x7265,0x20(%rbp)
  402dad:	c6 45 22 00          	movb   $0x0,0x22(%rbp)
  402db1:	89 df                	mov    %ebx,%edi
  402db3:	e8 78 df ff ff       	callq  400d30 <close@plt>
  402db8:	b8 ff ff ff ff       	mov    $0xffffffff,%eax
  402dbd:	eb 16                	jmp    402dd5 <init_driver+0x1d7>
  402dbf:	89 df                	mov    %ebx,%edi
  402dc1:	e8 6a df ff ff       	callq  400d30 <close@plt>
  402dc6:	66 c7 45 00 4f 4b    	movw   $0x4b4f,0x0(%rbp)
  402dcc:	c6 45 02 00          	movb   $0x0,0x2(%rbp)
  402dd0:	b8 00 00 00 00       	mov    $0x0,%eax
  402dd5:	48 8b 4c 24 18       	mov    0x18(%rsp),%rcx
  402dda:	64 48 33 0c 25 28 00 	xor    %fs:0x28,%rcx
  402de1:	00 00 
  402de3:	74 05                	je     402dea <init_driver+0x1ec>
  402de5:	e8 06 df ff ff       	callq  400cf0 <__stack_chk_fail@plt>
  402dea:	48 83 c4 28          	add    $0x28,%rsp
  402dee:	5b                   	pop    %rbx
  402def:	5d                   	pop    %rbp
  402df0:	c3                   	retq   

0000000000402df1 <driver_post>:
  402df1:	53                   	push   %rbx
  402df2:	4c 89 cb             	mov    %r9,%rbx
  402df5:	45 85 c0             	test   %r8d,%r8d
  402df8:	74 27                	je     402e21 <driver_post+0x30>
  402dfa:	48 89 ca             	mov    %rcx,%rdx
  402dfd:	be 83 37 40 00       	mov    $0x403783,%esi
  402e02:	bf 01 00 00 00       	mov    $0x1,%edi
  402e07:	b8 00 00 00 00       	mov    $0x0,%eax
  402e0c:	e8 ef df ff ff       	callq  400e00 <__printf_chk@plt>
  402e11:	66 c7 03 4f 4b       	movw   $0x4b4f,(%rbx)
  402e16:	c6 43 02 00          	movb   $0x0,0x2(%rbx)
  402e1a:	b8 00 00 00 00       	mov    $0x0,%eax
  402e1f:	eb 3f                	jmp    402e60 <driver_post+0x6f>
  402e21:	48 85 ff             	test   %rdi,%rdi
  402e24:	74 2c                	je     402e52 <driver_post+0x61>
  402e26:	80 3f 00             	cmpb   $0x0,(%rdi)
  402e29:	74 27                	je     402e52 <driver_post+0x61>
  402e2b:	48 83 ec 08          	sub    $0x8,%rsp
  402e2f:	41 51                	push   %r9
  402e31:	49 89 c9             	mov    %rcx,%r9
  402e34:	49 89 d0             	mov    %rdx,%r8
  402e37:	48 89 f9             	mov    %rdi,%rcx
  402e3a:	48 89 f2             	mov    %rsi,%rdx
  402e3d:	be 9a 3c 00 00       	mov    $0x3c9a,%esi
  402e42:	bf 75 37 40 00       	mov    $0x403775,%edi
  402e47:	e8 19 f6 ff ff       	callq  402465 <submitr>
  402e4c:	48 83 c4 10          	add    $0x10,%rsp
  402e50:	eb 0e                	jmp    402e60 <driver_post+0x6f>
  402e52:	66 c7 03 4f 4b       	movw   $0x4b4f,(%rbx)
  402e57:	c6 43 02 00          	movb   $0x0,0x2(%rbx)
  402e5b:	b8 00 00 00 00       	mov    $0x0,%eax
  402e60:	5b                   	pop    %rbx
  402e61:	c3                   	retq   

0000000000402e62 <check>:
  402e62:	89 f8                	mov    %edi,%eax
  402e64:	c1 e8 1c             	shr    $0x1c,%eax
  402e67:	85 c0                	test   %eax,%eax
  402e69:	74 1d                	je     402e88 <check+0x26>
  402e6b:	b9 00 00 00 00       	mov    $0x0,%ecx
  402e70:	eb 0b                	jmp    402e7d <check+0x1b>
  402e72:	89 f8                	mov    %edi,%eax
  402e74:	d3 e8                	shr    %cl,%eax
  402e76:	3c 0a                	cmp    $0xa,%al
  402e78:	74 14                	je     402e8e <check+0x2c>
  402e7a:	83 c1 08             	add    $0x8,%ecx
  402e7d:	83 f9 1f             	cmp    $0x1f,%ecx
  402e80:	7e f0                	jle    402e72 <check+0x10>
  402e82:	b8 01 00 00 00       	mov    $0x1,%eax
  402e87:	c3                   	retq   
  402e88:	b8 00 00 00 00       	mov    $0x0,%eax
  402e8d:	c3                   	retq   
  402e8e:	b8 00 00 00 00       	mov    $0x0,%eax
  402e93:	c3                   	retq   

0000000000402e94 <gencookie>:
  402e94:	53                   	push   %rbx
  402e95:	83 c7 01             	add    $0x1,%edi
  402e98:	e8 03 de ff ff       	callq  400ca0 <srandom@plt>
  402e9d:	e8 1e df ff ff       	callq  400dc0 <random@plt>
  402ea2:	89 c3                	mov    %eax,%ebx
  402ea4:	89 c7                	mov    %eax,%edi
  402ea6:	e8 b7 ff ff ff       	callq  402e62 <check>
  402eab:	85 c0                	test   %eax,%eax
  402ead:	74 ee                	je     402e9d <gencookie+0x9>
  402eaf:	89 d8                	mov    %ebx,%eax
  402eb1:	5b                   	pop    %rbx
  402eb2:	c3                   	retq   
  402eb3:	66 2e 0f 1f 84 00 00 	nopw   %cs:0x0(%rax,%rax,1)
  402eba:	00 00 00 
  402ebd:	0f 1f 00             	nopl   (%rax)

0000000000402ec0 <__libc_csu_init>:
  402ec0:	41 57                	push   %r15
  402ec2:	41 56                	push   %r14
  402ec4:	41 89 ff             	mov    %edi,%r15d
  402ec7:	41 55                	push   %r13
  402ec9:	41 54                	push   %r12
  402ecb:	4c 8d 25 3e 1f 20 00 	lea    0x201f3e(%rip),%r12        # 604e10 <__frame_dummy_init_array_entry>
  402ed2:	55                   	push   %rbp
  402ed3:	48 8d 2d 3e 1f 20 00 	lea    0x201f3e(%rip),%rbp        # 604e18 <__init_array_end>
  402eda:	53                   	push   %rbx
  402edb:	49 89 f6             	mov    %rsi,%r14
  402ede:	49 89 d5             	mov    %rdx,%r13
  402ee1:	4c 29 e5             	sub    %r12,%rbp
  402ee4:	48 83 ec 08          	sub    $0x8,%rsp
  402ee8:	48 c1 fd 03          	sar    $0x3,%rbp
  402eec:	e8 57 dd ff ff       	callq  400c48 <_init>
  402ef1:	48 85 ed             	test   %rbp,%rbp
  402ef4:	74 20                	je     402f16 <__libc_csu_init+0x56>
  402ef6:	31 db                	xor    %ebx,%ebx
  402ef8:	0f 1f 84 00 00 00 00 	nopl   0x0(%rax,%rax,1)
  402eff:	00 
  402f00:	4c 89 ea             	mov    %r13,%rdx
  402f03:	4c 89 f6             	mov    %r14,%rsi
  402f06:	44 89 ff             	mov    %r15d,%edi
  402f09:	41 ff 14 dc          	callq  *(%r12,%rbx,8)
  402f0d:	48 83 c3 01          	add    $0x1,%rbx
  402f11:	48 39 eb             	cmp    %rbp,%rbx
  402f14:	75 ea                	jne    402f00 <__libc_csu_init+0x40>
  402f16:	48 83 c4 08          	add    $0x8,%rsp
  402f1a:	5b                   	pop    %rbx
  402f1b:	5d                   	pop    %rbp
  402f1c:	41 5c                	pop    %r12
  402f1e:	41 5d                	pop    %r13
  402f20:	41 5e                	pop    %r14
  402f22:	41 5f                	pop    %r15
  402f24:	c3                   	retq   
  402f25:	90                   	nop
  402f26:	66 2e 0f 1f 84 00 00 	nopw   %cs:0x0(%rax,%rax,1)
  402f2d:	00 00 00 

0000000000402f30 <__libc_csu_fini>:
  402f30:	f3 c3                	repz retq 

Disassembly of section .fini:

0000000000402f34 <_fini>:
  402f34:	48 83 ec 08          	sub    $0x8,%rsp
  402f38:	48 83 c4 08          	add    $0x8,%rsp
  402f3c:	c3                   	retq   
