
rtarget:     file format elf64-x86-64


Disassembly of section .init:

0000000000400c48 <_init>:
  400c48:	48 83 ec 08          	sub    $0x8,%rsp
  400c4c:	48 8b 05 a5 43 20 00 	mov    0x2043a5(%rip),%rax        # 604ff8 <_DYNAMIC+0x1d0>
  400c53:	48 85 c0             	test   %rax,%rax
  400c56:	74 05                	je     400c5d <_init+0x15>
  400c58:	e8 43 02 00 00       	callq  400ea0 <socket@plt+0x10>
  400c5d:	48 83 c4 08          	add    $0x8,%rsp
  400c61:	c3                   	retq   

Disassembly of section .plt:

0000000000400c70 <strcasecmp@plt-0x10>:
  400c70:	ff 35 92 43 20 00    	pushq  0x204392(%rip)        # 605008 <_GLOBAL_OFFSET_TABLE_+0x8>
  400c76:	ff 25 94 43 20 00    	jmpq   *0x204394(%rip)        # 605010 <_GLOBAL_OFFSET_TABLE_+0x10>
  400c7c:	0f 1f 40 00          	nopl   0x0(%rax)

0000000000400c80 <strcasecmp@plt>:
  400c80:	ff 25 92 43 20 00    	jmpq   *0x204392(%rip)        # 605018 <_GLOBAL_OFFSET_TABLE_+0x18>
  400c86:	68 00 00 00 00       	pushq  $0x0
  400c8b:	e9 e0 ff ff ff       	jmpq   400c70 <_init+0x28>

0000000000400c90 <__errno_location@plt>:
  400c90:	ff 25 8a 43 20 00    	jmpq   *0x20438a(%rip)        # 605020 <_GLOBAL_OFFSET_TABLE_+0x20>
  400c96:	68 01 00 00 00       	pushq  $0x1
  400c9b:	e9 d0 ff ff ff       	jmpq   400c70 <_init+0x28>

0000000000400ca0 <srandom@plt>:
  400ca0:	ff 25 82 43 20 00    	jmpq   *0x204382(%rip)        # 605028 <_GLOBAL_OFFSET_TABLE_+0x28>
  400ca6:	68 02 00 00 00       	pushq  $0x2
  400cab:	e9 c0 ff ff ff       	jmpq   400c70 <_init+0x28>

0000000000400cb0 <strncmp@plt>:
  400cb0:	ff 25 7a 43 20 00    	jmpq   *0x20437a(%rip)        # 605030 <_GLOBAL_OFFSET_TABLE_+0x30>
  400cb6:	68 03 00 00 00       	pushq  $0x3
  400cbb:	e9 b0 ff ff ff       	jmpq   400c70 <_init+0x28>

0000000000400cc0 <strcpy@plt>:
  400cc0:	ff 25 72 43 20 00    	jmpq   *0x204372(%rip)        # 605038 <_GLOBAL_OFFSET_TABLE_+0x38>
  400cc6:	68 04 00 00 00       	pushq  $0x4
  400ccb:	e9 a0 ff ff ff       	jmpq   400c70 <_init+0x28>

0000000000400cd0 <puts@plt>:
  400cd0:	ff 25 6a 43 20 00    	jmpq   *0x20436a(%rip)        # 605040 <_GLOBAL_OFFSET_TABLE_+0x40>
  400cd6:	68 05 00 00 00       	pushq  $0x5
  400cdb:	e9 90 ff ff ff       	jmpq   400c70 <_init+0x28>

0000000000400ce0 <write@plt>:
  400ce0:	ff 25 62 43 20 00    	jmpq   *0x204362(%rip)        # 605048 <_GLOBAL_OFFSET_TABLE_+0x48>
  400ce6:	68 06 00 00 00       	pushq  $0x6
  400ceb:	e9 80 ff ff ff       	jmpq   400c70 <_init+0x28>

0000000000400cf0 <__stack_chk_fail@plt>:
  400cf0:	ff 25 5a 43 20 00    	jmpq   *0x20435a(%rip)        # 605050 <_GLOBAL_OFFSET_TABLE_+0x50>
  400cf6:	68 07 00 00 00       	pushq  $0x7
  400cfb:	e9 70 ff ff ff       	jmpq   400c70 <_init+0x28>

0000000000400d00 <mmap@plt>:
  400d00:	ff 25 52 43 20 00    	jmpq   *0x204352(%rip)        # 605058 <_GLOBAL_OFFSET_TABLE_+0x58>
  400d06:	68 08 00 00 00       	pushq  $0x8
  400d0b:	e9 60 ff ff ff       	jmpq   400c70 <_init+0x28>

0000000000400d10 <memset@plt>:
  400d10:	ff 25 4a 43 20 00    	jmpq   *0x20434a(%rip)        # 605060 <_GLOBAL_OFFSET_TABLE_+0x60>
  400d16:	68 09 00 00 00       	pushq  $0x9
  400d1b:	e9 50 ff ff ff       	jmpq   400c70 <_init+0x28>

0000000000400d20 <alarm@plt>:
  400d20:	ff 25 42 43 20 00    	jmpq   *0x204342(%rip)        # 605068 <_GLOBAL_OFFSET_TABLE_+0x68>
  400d26:	68 0a 00 00 00       	pushq  $0xa
  400d2b:	e9 40 ff ff ff       	jmpq   400c70 <_init+0x28>

0000000000400d30 <close@plt>:
  400d30:	ff 25 3a 43 20 00    	jmpq   *0x20433a(%rip)        # 605070 <_GLOBAL_OFFSET_TABLE_+0x70>
  400d36:	68 0b 00 00 00       	pushq  $0xb
  400d3b:	e9 30 ff ff ff       	jmpq   400c70 <_init+0x28>

0000000000400d40 <read@plt>:
  400d40:	ff 25 32 43 20 00    	jmpq   *0x204332(%rip)        # 605078 <_GLOBAL_OFFSET_TABLE_+0x78>
  400d46:	68 0c 00 00 00       	pushq  $0xc
  400d4b:	e9 20 ff ff ff       	jmpq   400c70 <_init+0x28>

0000000000400d50 <__libc_start_main@plt>:
  400d50:	ff 25 2a 43 20 00    	jmpq   *0x20432a(%rip)        # 605080 <_GLOBAL_OFFSET_TABLE_+0x80>
  400d56:	68 0d 00 00 00       	pushq  $0xd
  400d5b:	e9 10 ff ff ff       	jmpq   400c70 <_init+0x28>

0000000000400d60 <signal@plt>:
  400d60:	ff 25 22 43 20 00    	jmpq   *0x204322(%rip)        # 605088 <_GLOBAL_OFFSET_TABLE_+0x88>
  400d66:	68 0e 00 00 00       	pushq  $0xe
  400d6b:	e9 00 ff ff ff       	jmpq   400c70 <_init+0x28>

0000000000400d70 <gethostbyname@plt>:
  400d70:	ff 25 1a 43 20 00    	jmpq   *0x20431a(%rip)        # 605090 <_GLOBAL_OFFSET_TABLE_+0x90>
  400d76:	68 0f 00 00 00       	pushq  $0xf
  400d7b:	e9 f0 fe ff ff       	jmpq   400c70 <_init+0x28>

0000000000400d80 <__memmove_chk@plt>:
  400d80:	ff 25 12 43 20 00    	jmpq   *0x204312(%rip)        # 605098 <_GLOBAL_OFFSET_TABLE_+0x98>
  400d86:	68 10 00 00 00       	pushq  $0x10
  400d8b:	e9 e0 fe ff ff       	jmpq   400c70 <_init+0x28>

0000000000400d90 <strtol@plt>:
  400d90:	ff 25 0a 43 20 00    	jmpq   *0x20430a(%rip)        # 6050a0 <_GLOBAL_OFFSET_TABLE_+0xa0>
  400d96:	68 11 00 00 00       	pushq  $0x11
  400d9b:	e9 d0 fe ff ff       	jmpq   400c70 <_init+0x28>

0000000000400da0 <memcpy@plt>:
  400da0:	ff 25 02 43 20 00    	jmpq   *0x204302(%rip)        # 6050a8 <_GLOBAL_OFFSET_TABLE_+0xa8>
  400da6:	68 12 00 00 00       	pushq  $0x12
  400dab:	e9 c0 fe ff ff       	jmpq   400c70 <_init+0x28>

0000000000400db0 <time@plt>:
  400db0:	ff 25 fa 42 20 00    	jmpq   *0x2042fa(%rip)        # 6050b0 <_GLOBAL_OFFSET_TABLE_+0xb0>
  400db6:	68 13 00 00 00       	pushq  $0x13
  400dbb:	e9 b0 fe ff ff       	jmpq   400c70 <_init+0x28>

0000000000400dc0 <random@plt>:
  400dc0:	ff 25 f2 42 20 00    	jmpq   *0x2042f2(%rip)        # 6050b8 <_GLOBAL_OFFSET_TABLE_+0xb8>
  400dc6:	68 14 00 00 00       	pushq  $0x14
  400dcb:	e9 a0 fe ff ff       	jmpq   400c70 <_init+0x28>

0000000000400dd0 <_IO_getc@plt>:
  400dd0:	ff 25 ea 42 20 00    	jmpq   *0x2042ea(%rip)        # 6050c0 <_GLOBAL_OFFSET_TABLE_+0xc0>
  400dd6:	68 15 00 00 00       	pushq  $0x15
  400ddb:	e9 90 fe ff ff       	jmpq   400c70 <_init+0x28>

0000000000400de0 <__isoc99_sscanf@plt>:
  400de0:	ff 25 e2 42 20 00    	jmpq   *0x2042e2(%rip)        # 6050c8 <_GLOBAL_OFFSET_TABLE_+0xc8>
  400de6:	68 16 00 00 00       	pushq  $0x16
  400deb:	e9 80 fe ff ff       	jmpq   400c70 <_init+0x28>

0000000000400df0 <munmap@plt>:
  400df0:	ff 25 da 42 20 00    	jmpq   *0x2042da(%rip)        # 6050d0 <_GLOBAL_OFFSET_TABLE_+0xd0>
  400df6:	68 17 00 00 00       	pushq  $0x17
  400dfb:	e9 70 fe ff ff       	jmpq   400c70 <_init+0x28>

0000000000400e00 <__printf_chk@plt>:
  400e00:	ff 25 d2 42 20 00    	jmpq   *0x2042d2(%rip)        # 6050d8 <_GLOBAL_OFFSET_TABLE_+0xd8>
  400e06:	68 18 00 00 00       	pushq  $0x18
  400e0b:	e9 60 fe ff ff       	jmpq   400c70 <_init+0x28>

0000000000400e10 <fopen@plt>:
  400e10:	ff 25 ca 42 20 00    	jmpq   *0x2042ca(%rip)        # 6050e0 <_GLOBAL_OFFSET_TABLE_+0xe0>
  400e16:	68 19 00 00 00       	pushq  $0x19
  400e1b:	e9 50 fe ff ff       	jmpq   400c70 <_init+0x28>

0000000000400e20 <getopt@plt>:
  400e20:	ff 25 c2 42 20 00    	jmpq   *0x2042c2(%rip)        # 6050e8 <_GLOBAL_OFFSET_TABLE_+0xe8>
  400e26:	68 1a 00 00 00       	pushq  $0x1a
  400e2b:	e9 40 fe ff ff       	jmpq   400c70 <_init+0x28>

0000000000400e30 <strtoul@plt>:
  400e30:	ff 25 ba 42 20 00    	jmpq   *0x2042ba(%rip)        # 6050f0 <_GLOBAL_OFFSET_TABLE_+0xf0>
  400e36:	68 1b 00 00 00       	pushq  $0x1b
  400e3b:	e9 30 fe ff ff       	jmpq   400c70 <_init+0x28>

0000000000400e40 <gethostname@plt>:
  400e40:	ff 25 b2 42 20 00    	jmpq   *0x2042b2(%rip)        # 6050f8 <_GLOBAL_OFFSET_TABLE_+0xf8>
  400e46:	68 1c 00 00 00       	pushq  $0x1c
  400e4b:	e9 20 fe ff ff       	jmpq   400c70 <_init+0x28>

0000000000400e50 <exit@plt>:
  400e50:	ff 25 aa 42 20 00    	jmpq   *0x2042aa(%rip)        # 605100 <_GLOBAL_OFFSET_TABLE_+0x100>
  400e56:	68 1d 00 00 00       	pushq  $0x1d
  400e5b:	e9 10 fe ff ff       	jmpq   400c70 <_init+0x28>

0000000000400e60 <connect@plt>:
  400e60:	ff 25 a2 42 20 00    	jmpq   *0x2042a2(%rip)        # 605108 <_GLOBAL_OFFSET_TABLE_+0x108>
  400e66:	68 1e 00 00 00       	pushq  $0x1e
  400e6b:	e9 00 fe ff ff       	jmpq   400c70 <_init+0x28>

0000000000400e70 <__fprintf_chk@plt>:
  400e70:	ff 25 9a 42 20 00    	jmpq   *0x20429a(%rip)        # 605110 <_GLOBAL_OFFSET_TABLE_+0x110>
  400e76:	68 1f 00 00 00       	pushq  $0x1f
  400e7b:	e9 f0 fd ff ff       	jmpq   400c70 <_init+0x28>

0000000000400e80 <__sprintf_chk@plt>:
  400e80:	ff 25 92 42 20 00    	jmpq   *0x204292(%rip)        # 605118 <_GLOBAL_OFFSET_TABLE_+0x118>
  400e86:	68 20 00 00 00       	pushq  $0x20
  400e8b:	e9 e0 fd ff ff       	jmpq   400c70 <_init+0x28>

0000000000400e90 <socket@plt>:
  400e90:	ff 25 8a 42 20 00    	jmpq   *0x20428a(%rip)        # 605120 <_GLOBAL_OFFSET_TABLE_+0x120>
  400e96:	68 21 00 00 00       	pushq  $0x21
  400e9b:	e9 d0 fd ff ff       	jmpq   400c70 <_init+0x28>

Disassembly of section .plt.got:

0000000000400ea0 <.plt.got>:
  400ea0:	ff 25 52 41 20 00    	jmpq   *0x204152(%rip)        # 604ff8 <_DYNAMIC+0x1d0>
  400ea6:	66 90                	xchg   %ax,%ax

Disassembly of section .text:

0000000000400eb0 <_start>:
  400eb0:	31 ed                	xor    %ebp,%ebp
  400eb2:	49 89 d1             	mov    %rdx,%r9
  400eb5:	5e                   	pop    %rsi
  400eb6:	48 89 e2             	mov    %rsp,%rdx
  400eb9:	48 83 e4 f0          	and    $0xfffffffffffffff0,%rsp
  400ebd:	50                   	push   %rax
  400ebe:	54                   	push   %rsp
  400ebf:	49 c7 c0 50 30 40 00 	mov    $0x403050,%r8
  400ec6:	48 c7 c1 e0 2f 40 00 	mov    $0x402fe0,%rcx
  400ecd:	48 c7 c7 b5 11 40 00 	mov    $0x4011b5,%rdi
  400ed4:	e8 77 fe ff ff       	callq  400d50 <__libc_start_main@plt>
  400ed9:	f4                   	hlt    
  400eda:	66 0f 1f 44 00 00    	nopw   0x0(%rax,%rax,1)

0000000000400ee0 <deregister_tm_clones>:
  400ee0:	b8 b7 54 60 00       	mov    $0x6054b7,%eax
  400ee5:	55                   	push   %rbp
  400ee6:	48 2d b0 54 60 00    	sub    $0x6054b0,%rax
  400eec:	48 83 f8 0e          	cmp    $0xe,%rax
  400ef0:	48 89 e5             	mov    %rsp,%rbp
  400ef3:	76 1b                	jbe    400f10 <deregister_tm_clones+0x30>
  400ef5:	b8 00 00 00 00       	mov    $0x0,%eax
  400efa:	48 85 c0             	test   %rax,%rax
  400efd:	74 11                	je     400f10 <deregister_tm_clones+0x30>
  400eff:	5d                   	pop    %rbp
  400f00:	bf b0 54 60 00       	mov    $0x6054b0,%edi
  400f05:	ff e0                	jmpq   *%rax
  400f07:	66 0f 1f 84 00 00 00 	nopw   0x0(%rax,%rax,1)
  400f0e:	00 00 
  400f10:	5d                   	pop    %rbp
  400f11:	c3                   	retq   
  400f12:	0f 1f 40 00          	nopl   0x0(%rax)
  400f16:	66 2e 0f 1f 84 00 00 	nopw   %cs:0x0(%rax,%rax,1)
  400f1d:	00 00 00 

0000000000400f20 <register_tm_clones>:
  400f20:	be b0 54 60 00       	mov    $0x6054b0,%esi
  400f25:	55                   	push   %rbp
  400f26:	48 81 ee b0 54 60 00 	sub    $0x6054b0,%rsi
  400f2d:	48 c1 fe 03          	sar    $0x3,%rsi
  400f31:	48 89 e5             	mov    %rsp,%rbp
  400f34:	48 89 f0             	mov    %rsi,%rax
  400f37:	48 c1 e8 3f          	shr    $0x3f,%rax
  400f3b:	48 01 c6             	add    %rax,%rsi
  400f3e:	48 d1 fe             	sar    %rsi
  400f41:	74 15                	je     400f58 <register_tm_clones+0x38>
  400f43:	b8 00 00 00 00       	mov    $0x0,%eax
  400f48:	48 85 c0             	test   %rax,%rax
  400f4b:	74 0b                	je     400f58 <register_tm_clones+0x38>
  400f4d:	5d                   	pop    %rbp
  400f4e:	bf b0 54 60 00       	mov    $0x6054b0,%edi
  400f53:	ff e0                	jmpq   *%rax
  400f55:	0f 1f 00             	nopl   (%rax)
  400f58:	5d                   	pop    %rbp
  400f59:	c3                   	retq   
  400f5a:	66 0f 1f 44 00 00    	nopw   0x0(%rax,%rax,1)

0000000000400f60 <__do_global_dtors_aux>:
  400f60:	80 3d 81 45 20 00 00 	cmpb   $0x0,0x204581(%rip)        # 6054e8 <completed.7585>
  400f67:	75 11                	jne    400f7a <__do_global_dtors_aux+0x1a>
  400f69:	55                   	push   %rbp
  400f6a:	48 89 e5             	mov    %rsp,%rbp
  400f6d:	e8 6e ff ff ff       	callq  400ee0 <deregister_tm_clones>
  400f72:	5d                   	pop    %rbp
  400f73:	c6 05 6e 45 20 00 01 	movb   $0x1,0x20456e(%rip)        # 6054e8 <completed.7585>
  400f7a:	f3 c3                	repz retq 
  400f7c:	0f 1f 40 00          	nopl   0x0(%rax)

0000000000400f80 <frame_dummy>:
  400f80:	bf 20 4e 60 00       	mov    $0x604e20,%edi
  400f85:	48 83 3f 00          	cmpq   $0x0,(%rdi)
  400f89:	75 05                	jne    400f90 <frame_dummy+0x10>
  400f8b:	eb 93                	jmp    400f20 <register_tm_clones>
  400f8d:	0f 1f 00             	nopl   (%rax)
  400f90:	b8 00 00 00 00       	mov    $0x0,%eax
  400f95:	48 85 c0             	test   %rax,%rax
  400f98:	74 f1                	je     400f8b <frame_dummy+0xb>
  400f9a:	55                   	push   %rbp
  400f9b:	48 89 e5             	mov    %rsp,%rbp
  400f9e:	ff d0                	callq  *%rax
  400fa0:	5d                   	pop    %rbp
  400fa1:	e9 7a ff ff ff       	jmpq   400f20 <register_tm_clones>

0000000000400fa6 <usage>:
  400fa6:	48 83 ec 08          	sub    $0x8,%rsp
  400faa:	48 89 fa             	mov    %rdi,%rdx
  400fad:	83 3d 74 45 20 00 00 	cmpl   $0x0,0x204574(%rip)        # 605528 <is_checker>
  400fb4:	74 3e                	je     400ff4 <usage+0x4e>
  400fb6:	be 68 30 40 00       	mov    $0x403068,%esi
  400fbb:	bf 01 00 00 00       	mov    $0x1,%edi
  400fc0:	b8 00 00 00 00       	mov    $0x0,%eax
  400fc5:	e8 36 fe ff ff       	callq  400e00 <__printf_chk@plt>
  400fca:	bf a0 30 40 00       	mov    $0x4030a0,%edi
  400fcf:	e8 fc fc ff ff       	callq  400cd0 <puts@plt>
  400fd4:	bf 18 32 40 00       	mov    $0x403218,%edi
  400fd9:	e8 f2 fc ff ff       	callq  400cd0 <puts@plt>
  400fde:	bf c8 30 40 00       	mov    $0x4030c8,%edi
  400fe3:	e8 e8 fc ff ff       	callq  400cd0 <puts@plt>
  400fe8:	bf 32 32 40 00       	mov    $0x403232,%edi
  400fed:	e8 de fc ff ff       	callq  400cd0 <puts@plt>
  400ff2:	eb 32                	jmp    401026 <usage+0x80>
  400ff4:	be 4e 32 40 00       	mov    $0x40324e,%esi
  400ff9:	bf 01 00 00 00       	mov    $0x1,%edi
  400ffe:	b8 00 00 00 00       	mov    $0x0,%eax
  401003:	e8 f8 fd ff ff       	callq  400e00 <__printf_chk@plt>
  401008:	bf f0 30 40 00       	mov    $0x4030f0,%edi
  40100d:	e8 be fc ff ff       	callq  400cd0 <puts@plt>
  401012:	bf 18 31 40 00       	mov    $0x403118,%edi
  401017:	e8 b4 fc ff ff       	callq  400cd0 <puts@plt>
  40101c:	bf 6c 32 40 00       	mov    $0x40326c,%edi
  401021:	e8 aa fc ff ff       	callq  400cd0 <puts@plt>
  401026:	bf 00 00 00 00       	mov    $0x0,%edi
  40102b:	e8 20 fe ff ff       	callq  400e50 <exit@plt>

0000000000401030 <initialize_target>:
  401030:	55                   	push   %rbp
  401031:	53                   	push   %rbx
  401032:	48 81 ec 18 21 00 00 	sub    $0x2118,%rsp
  401039:	89 f5                	mov    %esi,%ebp
  40103b:	64 48 8b 04 25 28 00 	mov    %fs:0x28,%rax
  401042:	00 00 
  401044:	48 89 84 24 08 21 00 	mov    %rax,0x2108(%rsp)
  40104b:	00 
  40104c:	31 c0                	xor    %eax,%eax
  40104e:	89 3d c4 44 20 00    	mov    %edi,0x2044c4(%rip)        # 605518 <check_level>
  401054:	8b 3d 0e 41 20 00    	mov    0x20410e(%rip),%edi        # 605168 <target_id>
  40105a:	e8 59 1f 00 00       	callq  402fb8 <gencookie>
  40105f:	89 05 bf 44 20 00    	mov    %eax,0x2044bf(%rip)        # 605524 <cookie>
  401065:	89 c7                	mov    %eax,%edi
  401067:	e8 4c 1f 00 00       	callq  402fb8 <gencookie>
  40106c:	89 05 ae 44 20 00    	mov    %eax,0x2044ae(%rip)        # 605520 <authkey>
  401072:	8b 05 f0 40 20 00    	mov    0x2040f0(%rip),%eax        # 605168 <target_id>
  401078:	8d 78 01             	lea    0x1(%rax),%edi
  40107b:	e8 20 fc ff ff       	callq  400ca0 <srandom@plt>
  401080:	e8 3b fd ff ff       	callq  400dc0 <random@plt>
  401085:	89 c7                	mov    %eax,%edi
  401087:	e8 03 03 00 00       	callq  40138f <scramble>
  40108c:	89 c3                	mov    %eax,%ebx
  40108e:	85 ed                	test   %ebp,%ebp
  401090:	74 18                	je     4010aa <initialize_target+0x7a>
  401092:	bf 00 00 00 00       	mov    $0x0,%edi
  401097:	e8 14 fd ff ff       	callq  400db0 <time@plt>
  40109c:	89 c7                	mov    %eax,%edi
  40109e:	e8 fd fb ff ff       	callq  400ca0 <srandom@plt>
  4010a3:	e8 18 fd ff ff       	callq  400dc0 <random@plt>
  4010a8:	eb 05                	jmp    4010af <initialize_target+0x7f>
  4010aa:	b8 00 00 00 00       	mov    $0x0,%eax
  4010af:	01 c3                	add    %eax,%ebx
  4010b1:	0f b7 db             	movzwl %bx,%ebx
  4010b4:	8d 04 dd 00 01 00 00 	lea    0x100(,%rbx,8),%eax
  4010bb:	89 c0                	mov    %eax,%eax
  4010bd:	48 89 05 dc 43 20 00 	mov    %rax,0x2043dc(%rip)        # 6054a0 <buf_offset>
  4010c4:	c6 05 7d 50 20 00 72 	movb   $0x72,0x20507d(%rip)        # 606148 <target_prefix>
  4010cb:	83 3d d6 43 20 00 00 	cmpl   $0x0,0x2043d6(%rip)        # 6054a8 <notify>
  4010d2:	0f 84 bb 00 00 00    	je     401193 <initialize_target+0x163>
  4010d8:	83 3d 49 44 20 00 00 	cmpl   $0x0,0x204449(%rip)        # 605528 <is_checker>
  4010df:	0f 85 ae 00 00 00    	jne    401193 <initialize_target+0x163>
  4010e5:	be 00 01 00 00       	mov    $0x100,%esi
  4010ea:	48 89 e7             	mov    %rsp,%rdi
  4010ed:	e8 4e fd ff ff       	callq  400e40 <gethostname@plt>
  4010f2:	85 c0                	test   %eax,%eax
  4010f4:	74 25                	je     40111b <initialize_target+0xeb>
  4010f6:	bf 48 31 40 00       	mov    $0x403148,%edi
  4010fb:	e8 d0 fb ff ff       	callq  400cd0 <puts@plt>
  401100:	bf 08 00 00 00       	mov    $0x8,%edi
  401105:	e8 46 fd ff ff       	callq  400e50 <exit@plt>
  40110a:	48 89 e6             	mov    %rsp,%rsi
  40110d:	e8 6e fb ff ff       	callq  400c80 <strcasecmp@plt>
  401112:	85 c0                	test   %eax,%eax
  401114:	74 21                	je     401137 <initialize_target+0x107>
  401116:	83 c3 01             	add    $0x1,%ebx
  401119:	eb 05                	jmp    401120 <initialize_target+0xf0>
  40111b:	bb 00 00 00 00       	mov    $0x0,%ebx
  401120:	48 63 c3             	movslq %ebx,%rax
  401123:	48 8b 3c c5 80 51 60 	mov    0x605180(,%rax,8),%rdi
  40112a:	00 
  40112b:	48 85 ff             	test   %rdi,%rdi
  40112e:	75 da                	jne    40110a <initialize_target+0xda>
  401130:	b8 00 00 00 00       	mov    $0x0,%eax
  401135:	eb 05                	jmp    40113c <initialize_target+0x10c>
  401137:	b8 01 00 00 00       	mov    $0x1,%eax
  40113c:	85 c0                	test   %eax,%eax
  40113e:	75 1c                	jne    40115c <initialize_target+0x12c>
  401140:	48 89 e2             	mov    %rsp,%rdx
  401143:	be 80 31 40 00       	mov    $0x403180,%esi
  401148:	bf 01 00 00 00       	mov    $0x1,%edi
  40114d:	e8 ae fc ff ff       	callq  400e00 <__printf_chk@plt>
  401152:	bf 08 00 00 00       	mov    $0x8,%edi
  401157:	e8 f4 fc ff ff       	callq  400e50 <exit@plt>
  40115c:	48 8d bc 24 00 01 00 	lea    0x100(%rsp),%rdi
  401163:	00 
  401164:	e8 b9 1b 00 00       	callq  402d22 <init_driver>
  401169:	85 c0                	test   %eax,%eax
  40116b:	79 26                	jns    401193 <initialize_target+0x163>
  40116d:	48 8d 94 24 00 01 00 	lea    0x100(%rsp),%rdx
  401174:	00 
  401175:	be c0 31 40 00       	mov    $0x4031c0,%esi
  40117a:	bf 01 00 00 00       	mov    $0x1,%edi
  40117f:	b8 00 00 00 00       	mov    $0x0,%eax
  401184:	e8 77 fc ff ff       	callq  400e00 <__printf_chk@plt>
  401189:	bf 08 00 00 00       	mov    $0x8,%edi
  40118e:	e8 bd fc ff ff       	callq  400e50 <exit@plt>
  401193:	48 8b 84 24 08 21 00 	mov    0x2108(%rsp),%rax
  40119a:	00 
  40119b:	64 48 33 04 25 28 00 	xor    %fs:0x28,%rax
  4011a2:	00 00 
  4011a4:	74 05                	je     4011ab <initialize_target+0x17b>
  4011a6:	e8 45 fb ff ff       	callq  400cf0 <__stack_chk_fail@plt>
  4011ab:	48 81 c4 18 21 00 00 	add    $0x2118,%rsp
  4011b2:	5b                   	pop    %rbx
  4011b3:	5d                   	pop    %rbp
  4011b4:	c3                   	retq   

00000000004011b5 <main>:
  4011b5:	41 56                	push   %r14
  4011b7:	41 55                	push   %r13
  4011b9:	41 54                	push   %r12
  4011bb:	55                   	push   %rbp
  4011bc:	53                   	push   %rbx
  4011bd:	41 89 fc             	mov    %edi,%r12d
  4011c0:	48 89 f3             	mov    %rsi,%rbx
  4011c3:	be 5d 20 40 00       	mov    $0x40205d,%esi
  4011c8:	bf 0b 00 00 00       	mov    $0xb,%edi
  4011cd:	e8 8e fb ff ff       	callq  400d60 <signal@plt>
  4011d2:	be 0f 20 40 00       	mov    $0x40200f,%esi
  4011d7:	bf 07 00 00 00       	mov    $0x7,%edi
  4011dc:	e8 7f fb ff ff       	callq  400d60 <signal@plt>
  4011e1:	be ab 20 40 00       	mov    $0x4020ab,%esi
  4011e6:	bf 04 00 00 00       	mov    $0x4,%edi
  4011eb:	e8 70 fb ff ff       	callq  400d60 <signal@plt>
  4011f0:	83 3d 31 43 20 00 00 	cmpl   $0x0,0x204331(%rip)        # 605528 <is_checker>
  4011f7:	74 20                	je     401219 <main+0x64>
  4011f9:	be f9 20 40 00       	mov    $0x4020f9,%esi
  4011fe:	bf 0e 00 00 00       	mov    $0xe,%edi
  401203:	e8 58 fb ff ff       	callq  400d60 <signal@plt>
  401208:	bf 05 00 00 00       	mov    $0x5,%edi
  40120d:	e8 0e fb ff ff       	callq  400d20 <alarm@plt>
  401212:	bd 8a 32 40 00       	mov    $0x40328a,%ebp
  401217:	eb 05                	jmp    40121e <main+0x69>
  401219:	bd 85 32 40 00       	mov    $0x403285,%ebp
  40121e:	48 8b 05 9b 42 20 00 	mov    0x20429b(%rip),%rax        # 6054c0 <stdin@@GLIBC_2.2.5>
  401225:	48 89 05 e4 42 20 00 	mov    %rax,0x2042e4(%rip)        # 605510 <infile>
  40122c:	41 bd 00 00 00 00    	mov    $0x0,%r13d
  401232:	41 be 00 00 00 00    	mov    $0x0,%r14d
  401238:	e9 c6 00 00 00       	jmpq   401303 <main+0x14e>
  40123d:	83 e8 61             	sub    $0x61,%eax
  401240:	3c 10                	cmp    $0x10,%al
  401242:	0f 87 9c 00 00 00    	ja     4012e4 <main+0x12f>
  401248:	0f b6 c0             	movzbl %al,%eax
  40124b:	ff 24 c5 d0 32 40 00 	jmpq   *0x4032d0(,%rax,8)
  401252:	48 8b 3b             	mov    (%rbx),%rdi
  401255:	e8 4c fd ff ff       	callq  400fa6 <usage>
  40125a:	be 95 35 40 00       	mov    $0x403595,%esi
  40125f:	48 8b 3d 62 42 20 00 	mov    0x204262(%rip),%rdi        # 6054c8 <optarg@@GLIBC_2.2.5>
  401266:	e8 a5 fb ff ff       	callq  400e10 <fopen@plt>
  40126b:	48 89 05 9e 42 20 00 	mov    %rax,0x20429e(%rip)        # 605510 <infile>
  401272:	48 85 c0             	test   %rax,%rax
  401275:	0f 85 88 00 00 00    	jne    401303 <main+0x14e>
  40127b:	48 8b 0d 46 42 20 00 	mov    0x204246(%rip),%rcx        # 6054c8 <optarg@@GLIBC_2.2.5>
  401282:	ba 92 32 40 00       	mov    $0x403292,%edx
  401287:	be 01 00 00 00       	mov    $0x1,%esi
  40128c:	48 8b 3d 4d 42 20 00 	mov    0x20424d(%rip),%rdi        # 6054e0 <stderr@@GLIBC_2.2.5>
  401293:	e8 d8 fb ff ff       	callq  400e70 <__fprintf_chk@plt>
  401298:	b8 01 00 00 00       	mov    $0x1,%eax
  40129d:	e9 e4 00 00 00       	jmpq   401386 <main+0x1d1>
  4012a2:	ba 10 00 00 00       	mov    $0x10,%edx
  4012a7:	be 00 00 00 00       	mov    $0x0,%esi
  4012ac:	48 8b 3d 15 42 20 00 	mov    0x204215(%rip),%rdi        # 6054c8 <optarg@@GLIBC_2.2.5>
  4012b3:	e8 78 fb ff ff       	callq  400e30 <strtoul@plt>
  4012b8:	41 89 c6             	mov    %eax,%r14d
  4012bb:	eb 46                	jmp    401303 <main+0x14e>
  4012bd:	ba 0a 00 00 00       	mov    $0xa,%edx
  4012c2:	be 00 00 00 00       	mov    $0x0,%esi
  4012c7:	48 8b 3d fa 41 20 00 	mov    0x2041fa(%rip),%rdi        # 6054c8 <optarg@@GLIBC_2.2.5>
  4012ce:	e8 bd fa ff ff       	callq  400d90 <strtol@plt>
  4012d3:	41 89 c5             	mov    %eax,%r13d
  4012d6:	eb 2b                	jmp    401303 <main+0x14e>
  4012d8:	c7 05 c6 41 20 00 00 	movl   $0x0,0x2041c6(%rip)        # 6054a8 <notify>
  4012df:	00 00 00 
  4012e2:	eb 1f                	jmp    401303 <main+0x14e>
  4012e4:	0f be d2             	movsbl %dl,%edx
  4012e7:	be af 32 40 00       	mov    $0x4032af,%esi
  4012ec:	bf 01 00 00 00       	mov    $0x1,%edi
  4012f1:	b8 00 00 00 00       	mov    $0x0,%eax
  4012f6:	e8 05 fb ff ff       	callq  400e00 <__printf_chk@plt>
  4012fb:	48 8b 3b             	mov    (%rbx),%rdi
  4012fe:	e8 a3 fc ff ff       	callq  400fa6 <usage>
  401303:	48 89 ea             	mov    %rbp,%rdx
  401306:	48 89 de             	mov    %rbx,%rsi
  401309:	44 89 e7             	mov    %r12d,%edi
  40130c:	e8 0f fb ff ff       	callq  400e20 <getopt@plt>
  401311:	89 c2                	mov    %eax,%edx
  401313:	3c ff                	cmp    $0xff,%al
  401315:	0f 85 22 ff ff ff    	jne    40123d <main+0x88>
  40131b:	be 01 00 00 00       	mov    $0x1,%esi
  401320:	44 89 ef             	mov    %r13d,%edi
  401323:	e8 08 fd ff ff       	callq  401030 <initialize_target>
  401328:	83 3d f9 41 20 00 00 	cmpl   $0x0,0x2041f9(%rip)        # 605528 <is_checker>
  40132f:	74 2a                	je     40135b <main+0x1a6>
  401331:	44 3b 35 e8 41 20 00 	cmp    0x2041e8(%rip),%r14d        # 605520 <authkey>
  401338:	74 21                	je     40135b <main+0x1a6>
  40133a:	44 89 f2             	mov    %r14d,%edx
  40133d:	be e8 31 40 00       	mov    $0x4031e8,%esi
  401342:	bf 01 00 00 00       	mov    $0x1,%edi
  401347:	b8 00 00 00 00       	mov    $0x0,%eax
  40134c:	e8 af fa ff ff       	callq  400e00 <__printf_chk@plt>
  401351:	b8 00 00 00 00       	mov    $0x0,%eax
  401356:	e8 50 09 00 00       	callq  401cab <check_fail>
  40135b:	8b 15 c3 41 20 00    	mov    0x2041c3(%rip),%edx        # 605524 <cookie>
  401361:	be c2 32 40 00       	mov    $0x4032c2,%esi
  401366:	bf 01 00 00 00       	mov    $0x1,%edi
  40136b:	b8 00 00 00 00       	mov    $0x0,%eax
  401370:	e8 8b fa ff ff       	callq  400e00 <__printf_chk@plt>
  401375:	48 8b 3d 24 41 20 00 	mov    0x204124(%rip),%rdi        # 6054a0 <buf_offset>
  40137c:	e8 cb 0d 00 00       	callq  40214c <launch>
  401381:	b8 00 00 00 00       	mov    $0x0,%eax
  401386:	5b                   	pop    %rbx
  401387:	5d                   	pop    %rbp
  401388:	41 5c                	pop    %r12
  40138a:	41 5d                	pop    %r13
  40138c:	41 5e                	pop    %r14
  40138e:	c3                   	retq   

000000000040138f <scramble>:
  40138f:	48 83 ec 38          	sub    $0x38,%rsp
  401393:	64 48 8b 04 25 28 00 	mov    %fs:0x28,%rax
  40139a:	00 00 
  40139c:	48 89 44 24 28       	mov    %rax,0x28(%rsp)
  4013a1:	31 c0                	xor    %eax,%eax
  4013a3:	eb 10                	jmp    4013b5 <scramble+0x26>
  4013a5:	69 d0 43 e2 00 00    	imul   $0xe243,%eax,%edx
  4013ab:	01 fa                	add    %edi,%edx
  4013ad:	89 c1                	mov    %eax,%ecx
  4013af:	89 14 8c             	mov    %edx,(%rsp,%rcx,4)
  4013b2:	83 c0 01             	add    $0x1,%eax
  4013b5:	83 f8 09             	cmp    $0x9,%eax
  4013b8:	76 eb                	jbe    4013a5 <scramble+0x16>
  4013ba:	8b 44 24 04          	mov    0x4(%rsp),%eax
  4013be:	69 c0 3b 07 00 00    	imul   $0x73b,%eax,%eax
  4013c4:	89 44 24 04          	mov    %eax,0x4(%rsp)
  4013c8:	8b 44 24 0c          	mov    0xc(%rsp),%eax
  4013cc:	69 c0 6d 1a 00 00    	imul   $0x1a6d,%eax,%eax
  4013d2:	89 44 24 0c          	mov    %eax,0xc(%rsp)
  4013d6:	8b 44 24 1c          	mov    0x1c(%rsp),%eax
  4013da:	69 c0 7a 3b 00 00    	imul   $0x3b7a,%eax,%eax
  4013e0:	89 44 24 1c          	mov    %eax,0x1c(%rsp)
  4013e4:	8b 44 24 0c          	mov    0xc(%rsp),%eax
  4013e8:	69 c0 50 17 00 00    	imul   $0x1750,%eax,%eax
  4013ee:	89 44 24 0c          	mov    %eax,0xc(%rsp)
  4013f2:	8b 44 24 04          	mov    0x4(%rsp),%eax
  4013f6:	69 c0 73 86 00 00    	imul   $0x8673,%eax,%eax
  4013fc:	89 44 24 04          	mov    %eax,0x4(%rsp)
  401400:	8b 44 24 18          	mov    0x18(%rsp),%eax
  401404:	69 c0 e3 0f 00 00    	imul   $0xfe3,%eax,%eax
  40140a:	89 44 24 18          	mov    %eax,0x18(%rsp)
  40140e:	8b 04 24             	mov    (%rsp),%eax
  401411:	69 c0 a9 d9 00 00    	imul   $0xd9a9,%eax,%eax
  401417:	89 04 24             	mov    %eax,(%rsp)
  40141a:	8b 44 24 18          	mov    0x18(%rsp),%eax
  40141e:	69 c0 f2 a5 00 00    	imul   $0xa5f2,%eax,%eax
  401424:	89 44 24 18          	mov    %eax,0x18(%rsp)
  401428:	8b 44 24 18          	mov    0x18(%rsp),%eax
  40142c:	69 c0 72 0c 00 00    	imul   $0xc72,%eax,%eax
  401432:	89 44 24 18          	mov    %eax,0x18(%rsp)
  401436:	8b 44 24 0c          	mov    0xc(%rsp),%eax
  40143a:	69 c0 78 97 00 00    	imul   $0x9778,%eax,%eax
  401440:	89 44 24 0c          	mov    %eax,0xc(%rsp)
  401444:	8b 44 24 10          	mov    0x10(%rsp),%eax
  401448:	69 c0 7c a8 00 00    	imul   $0xa87c,%eax,%eax
  40144e:	89 44 24 10          	mov    %eax,0x10(%rsp)
  401452:	8b 44 24 10          	mov    0x10(%rsp),%eax
  401456:	69 c0 cd 18 00 00    	imul   $0x18cd,%eax,%eax
  40145c:	89 44 24 10          	mov    %eax,0x10(%rsp)
  401460:	8b 44 24 08          	mov    0x8(%rsp),%eax
  401464:	69 c0 01 9e 00 00    	imul   $0x9e01,%eax,%eax
  40146a:	89 44 24 08          	mov    %eax,0x8(%rsp)
  40146e:	8b 04 24             	mov    (%rsp),%eax
  401471:	69 c0 c1 20 00 00    	imul   $0x20c1,%eax,%eax
  401477:	89 04 24             	mov    %eax,(%rsp)
  40147a:	8b 44 24 10          	mov    0x10(%rsp),%eax
  40147e:	69 c0 4d 25 00 00    	imul   $0x254d,%eax,%eax
  401484:	89 44 24 10          	mov    %eax,0x10(%rsp)
  401488:	8b 44 24 08          	mov    0x8(%rsp),%eax
  40148c:	69 c0 b2 85 00 00    	imul   $0x85b2,%eax,%eax
  401492:	89 44 24 08          	mov    %eax,0x8(%rsp)
  401496:	8b 44 24 14          	mov    0x14(%rsp),%eax
  40149a:	69 c0 66 9d 00 00    	imul   $0x9d66,%eax,%eax
  4014a0:	89 44 24 14          	mov    %eax,0x14(%rsp)
  4014a4:	8b 44 24 10          	mov    0x10(%rsp),%eax
  4014a8:	69 c0 a3 bf 00 00    	imul   $0xbfa3,%eax,%eax
  4014ae:	89 44 24 10          	mov    %eax,0x10(%rsp)
  4014b2:	8b 44 24 20          	mov    0x20(%rsp),%eax
  4014b6:	69 c0 b1 fb 00 00    	imul   $0xfbb1,%eax,%eax
  4014bc:	89 44 24 20          	mov    %eax,0x20(%rsp)
  4014c0:	8b 04 24             	mov    (%rsp),%eax
  4014c3:	69 c0 19 63 00 00    	imul   $0x6319,%eax,%eax
  4014c9:	89 04 24             	mov    %eax,(%rsp)
  4014cc:	8b 04 24             	mov    (%rsp),%eax
  4014cf:	69 c0 dd 72 00 00    	imul   $0x72dd,%eax,%eax
  4014d5:	89 04 24             	mov    %eax,(%rsp)
  4014d8:	8b 44 24 1c          	mov    0x1c(%rsp),%eax
  4014dc:	69 c0 0a 8c 00 00    	imul   $0x8c0a,%eax,%eax
  4014e2:	89 44 24 1c          	mov    %eax,0x1c(%rsp)
  4014e6:	8b 44 24 1c          	mov    0x1c(%rsp),%eax
  4014ea:	69 c0 b4 14 00 00    	imul   $0x14b4,%eax,%eax
  4014f0:	89 44 24 1c          	mov    %eax,0x1c(%rsp)
  4014f4:	8b 44 24 08          	mov    0x8(%rsp),%eax
  4014f8:	69 c0 09 16 00 00    	imul   $0x1609,%eax,%eax
  4014fe:	89 44 24 08          	mov    %eax,0x8(%rsp)
  401502:	8b 44 24 04          	mov    0x4(%rsp),%eax
  401506:	69 c0 5d 0b 00 00    	imul   $0xb5d,%eax,%eax
  40150c:	89 44 24 04          	mov    %eax,0x4(%rsp)
  401510:	8b 44 24 04          	mov    0x4(%rsp),%eax
  401514:	69 c0 2a 4a 00 00    	imul   $0x4a2a,%eax,%eax
  40151a:	89 44 24 04          	mov    %eax,0x4(%rsp)
  40151e:	8b 44 24 14          	mov    0x14(%rsp),%eax
  401522:	69 c0 69 13 00 00    	imul   $0x1369,%eax,%eax
  401528:	89 44 24 14          	mov    %eax,0x14(%rsp)
  40152c:	8b 44 24 18          	mov    0x18(%rsp),%eax
  401530:	69 c0 a5 46 00 00    	imul   $0x46a5,%eax,%eax
  401536:	89 44 24 18          	mov    %eax,0x18(%rsp)
  40153a:	8b 44 24 14          	mov    0x14(%rsp),%eax
  40153e:	69 c0 68 2c 00 00    	imul   $0x2c68,%eax,%eax
  401544:	89 44 24 14          	mov    %eax,0x14(%rsp)
  401548:	8b 44 24 0c          	mov    0xc(%rsp),%eax
  40154c:	69 c0 d8 54 00 00    	imul   $0x54d8,%eax,%eax
  401552:	89 44 24 0c          	mov    %eax,0xc(%rsp)
  401556:	8b 44 24 20          	mov    0x20(%rsp),%eax
  40155a:	69 c0 1d 68 00 00    	imul   $0x681d,%eax,%eax
  401560:	89 44 24 20          	mov    %eax,0x20(%rsp)
  401564:	8b 44 24 1c          	mov    0x1c(%rsp),%eax
  401568:	69 c0 3e 7e 00 00    	imul   $0x7e3e,%eax,%eax
  40156e:	89 44 24 1c          	mov    %eax,0x1c(%rsp)
  401572:	8b 44 24 14          	mov    0x14(%rsp),%eax
  401576:	69 c0 aa 7a 00 00    	imul   $0x7aaa,%eax,%eax
  40157c:	89 44 24 14          	mov    %eax,0x14(%rsp)
  401580:	8b 44 24 04          	mov    0x4(%rsp),%eax
  401584:	69 c0 63 de 00 00    	imul   $0xde63,%eax,%eax
  40158a:	89 44 24 04          	mov    %eax,0x4(%rsp)
  40158e:	8b 44 24 0c          	mov    0xc(%rsp),%eax
  401592:	69 c0 d5 14 00 00    	imul   $0x14d5,%eax,%eax
  401598:	89 44 24 0c          	mov    %eax,0xc(%rsp)
  40159c:	8b 44 24 1c          	mov    0x1c(%rsp),%eax
  4015a0:	69 c0 7f f8 00 00    	imul   $0xf87f,%eax,%eax
  4015a6:	89 44 24 1c          	mov    %eax,0x1c(%rsp)
  4015aa:	8b 44 24 04          	mov    0x4(%rsp),%eax
  4015ae:	69 c0 79 b4 00 00    	imul   $0xb479,%eax,%eax
  4015b4:	89 44 24 04          	mov    %eax,0x4(%rsp)
  4015b8:	8b 44 24 18          	mov    0x18(%rsp),%eax
  4015bc:	69 c0 3a d4 00 00    	imul   $0xd43a,%eax,%eax
  4015c2:	89 44 24 18          	mov    %eax,0x18(%rsp)
  4015c6:	8b 44 24 04          	mov    0x4(%rsp),%eax
  4015ca:	69 c0 86 b6 00 00    	imul   $0xb686,%eax,%eax
  4015d0:	89 44 24 04          	mov    %eax,0x4(%rsp)
  4015d4:	8b 44 24 0c          	mov    0xc(%rsp),%eax
  4015d8:	69 c0 54 ea 00 00    	imul   $0xea54,%eax,%eax
  4015de:	89 44 24 0c          	mov    %eax,0xc(%rsp)
  4015e2:	8b 44 24 18          	mov    0x18(%rsp),%eax
  4015e6:	69 c0 c4 97 00 00    	imul   $0x97c4,%eax,%eax
  4015ec:	89 44 24 18          	mov    %eax,0x18(%rsp)
  4015f0:	8b 44 24 24          	mov    0x24(%rsp),%eax
  4015f4:	69 c0 bc 75 00 00    	imul   $0x75bc,%eax,%eax
  4015fa:	89 44 24 24          	mov    %eax,0x24(%rsp)
  4015fe:	8b 44 24 18          	mov    0x18(%rsp),%eax
  401602:	69 c0 76 97 00 00    	imul   $0x9776,%eax,%eax
  401608:	89 44 24 18          	mov    %eax,0x18(%rsp)
  40160c:	8b 44 24 10          	mov    0x10(%rsp),%eax
  401610:	69 c0 97 5c 00 00    	imul   $0x5c97,%eax,%eax
  401616:	89 44 24 10          	mov    %eax,0x10(%rsp)
  40161a:	8b 44 24 14          	mov    0x14(%rsp),%eax
  40161e:	69 c0 c9 23 00 00    	imul   $0x23c9,%eax,%eax
  401624:	89 44 24 14          	mov    %eax,0x14(%rsp)
  401628:	8b 44 24 08          	mov    0x8(%rsp),%eax
  40162c:	69 c0 93 15 00 00    	imul   $0x1593,%eax,%eax
  401632:	89 44 24 08          	mov    %eax,0x8(%rsp)
  401636:	8b 44 24 1c          	mov    0x1c(%rsp),%eax
  40163a:	69 c0 fa 8b 00 00    	imul   $0x8bfa,%eax,%eax
  401640:	89 44 24 1c          	mov    %eax,0x1c(%rsp)
  401644:	8b 44 24 10          	mov    0x10(%rsp),%eax
  401648:	69 c0 6a 91 00 00    	imul   $0x916a,%eax,%eax
  40164e:	89 44 24 10          	mov    %eax,0x10(%rsp)
  401652:	8b 44 24 0c          	mov    0xc(%rsp),%eax
  401656:	69 c0 b3 d1 00 00    	imul   $0xd1b3,%eax,%eax
  40165c:	89 44 24 0c          	mov    %eax,0xc(%rsp)
  401660:	8b 04 24             	mov    (%rsp),%eax
  401663:	69 c0 ff 7c 00 00    	imul   $0x7cff,%eax,%eax
  401669:	89 04 24             	mov    %eax,(%rsp)
  40166c:	8b 04 24             	mov    (%rsp),%eax
  40166f:	69 c0 4a b1 00 00    	imul   $0xb14a,%eax,%eax
  401675:	89 04 24             	mov    %eax,(%rsp)
  401678:	8b 44 24 08          	mov    0x8(%rsp),%eax
  40167c:	69 c0 3b 6e 00 00    	imul   $0x6e3b,%eax,%eax
  401682:	89 44 24 08          	mov    %eax,0x8(%rsp)
  401686:	8b 44 24 0c          	mov    0xc(%rsp),%eax
  40168a:	69 c0 07 fa 00 00    	imul   $0xfa07,%eax,%eax
  401690:	89 44 24 0c          	mov    %eax,0xc(%rsp)
  401694:	8b 44 24 10          	mov    0x10(%rsp),%eax
  401698:	69 c0 f2 2e 00 00    	imul   $0x2ef2,%eax,%eax
  40169e:	89 44 24 10          	mov    %eax,0x10(%rsp)
  4016a2:	8b 44 24 20          	mov    0x20(%rsp),%eax
  4016a6:	69 c0 b8 2c 00 00    	imul   $0x2cb8,%eax,%eax
  4016ac:	89 44 24 20          	mov    %eax,0x20(%rsp)
  4016b0:	8b 04 24             	mov    (%rsp),%eax
  4016b3:	69 c0 71 72 00 00    	imul   $0x7271,%eax,%eax
  4016b9:	89 04 24             	mov    %eax,(%rsp)
  4016bc:	8b 44 24 20          	mov    0x20(%rsp),%eax
  4016c0:	69 c0 c5 4d 00 00    	imul   $0x4dc5,%eax,%eax
  4016c6:	89 44 24 20          	mov    %eax,0x20(%rsp)
  4016ca:	8b 44 24 24          	mov    0x24(%rsp),%eax
  4016ce:	69 c0 a9 6f 00 00    	imul   $0x6fa9,%eax,%eax
  4016d4:	89 44 24 24          	mov    %eax,0x24(%rsp)
  4016d8:	8b 04 24             	mov    (%rsp),%eax
  4016db:	69 c0 90 a4 00 00    	imul   $0xa490,%eax,%eax
  4016e1:	89 04 24             	mov    %eax,(%rsp)
  4016e4:	8b 44 24 14          	mov    0x14(%rsp),%eax
  4016e8:	69 c0 19 a9 00 00    	imul   $0xa919,%eax,%eax
  4016ee:	89 44 24 14          	mov    %eax,0x14(%rsp)
  4016f2:	8b 44 24 08          	mov    0x8(%rsp),%eax
  4016f6:	69 c0 b0 7d 00 00    	imul   $0x7db0,%eax,%eax
  4016fc:	89 44 24 08          	mov    %eax,0x8(%rsp)
  401700:	8b 44 24 10          	mov    0x10(%rsp),%eax
  401704:	69 c0 3f 54 00 00    	imul   $0x543f,%eax,%eax
  40170a:	89 44 24 10          	mov    %eax,0x10(%rsp)
  40170e:	8b 44 24 24          	mov    0x24(%rsp),%eax
  401712:	69 c0 7e 52 00 00    	imul   $0x527e,%eax,%eax
  401718:	89 44 24 24          	mov    %eax,0x24(%rsp)
  40171c:	8b 44 24 14          	mov    0x14(%rsp),%eax
  401720:	69 c0 4e 10 00 00    	imul   $0x104e,%eax,%eax
  401726:	89 44 24 14          	mov    %eax,0x14(%rsp)
  40172a:	8b 44 24 1c          	mov    0x1c(%rsp),%eax
  40172e:	69 c0 77 55 00 00    	imul   $0x5577,%eax,%eax
  401734:	89 44 24 1c          	mov    %eax,0x1c(%rsp)
  401738:	8b 44 24 0c          	mov    0xc(%rsp),%eax
  40173c:	69 c0 b9 0a 00 00    	imul   $0xab9,%eax,%eax
  401742:	89 44 24 0c          	mov    %eax,0xc(%rsp)
  401746:	8b 44 24 14          	mov    0x14(%rsp),%eax
  40174a:	69 c0 cb 02 00 00    	imul   $0x2cb,%eax,%eax
  401750:	89 44 24 14          	mov    %eax,0x14(%rsp)
  401754:	8b 44 24 10          	mov    0x10(%rsp),%eax
  401758:	69 c0 85 6c 00 00    	imul   $0x6c85,%eax,%eax
  40175e:	89 44 24 10          	mov    %eax,0x10(%rsp)
  401762:	8b 44 24 14          	mov    0x14(%rsp),%eax
  401766:	69 c0 6a bb 00 00    	imul   $0xbb6a,%eax,%eax
  40176c:	89 44 24 14          	mov    %eax,0x14(%rsp)
  401770:	8b 44 24 24          	mov    0x24(%rsp),%eax
  401774:	69 c0 60 ad 00 00    	imul   $0xad60,%eax,%eax
  40177a:	89 44 24 24          	mov    %eax,0x24(%rsp)
  40177e:	8b 04 24             	mov    (%rsp),%eax
  401781:	69 c0 be b4 00 00    	imul   $0xb4be,%eax,%eax
  401787:	89 04 24             	mov    %eax,(%rsp)
  40178a:	8b 44 24 04          	mov    0x4(%rsp),%eax
  40178e:	69 c0 9f ac 00 00    	imul   $0xac9f,%eax,%eax
  401794:	89 44 24 04          	mov    %eax,0x4(%rsp)
  401798:	8b 44 24 0c          	mov    0xc(%rsp),%eax
  40179c:	c1 e0 0b             	shl    $0xb,%eax
  40179f:	89 44 24 0c          	mov    %eax,0xc(%rsp)
  4017a3:	8b 44 24 18          	mov    0x18(%rsp),%eax
  4017a7:	69 c0 be e7 00 00    	imul   $0xe7be,%eax,%eax
  4017ad:	89 44 24 18          	mov    %eax,0x18(%rsp)
  4017b1:	8b 44 24 1c          	mov    0x1c(%rsp),%eax
  4017b5:	69 c0 89 e8 00 00    	imul   $0xe889,%eax,%eax
  4017bb:	89 44 24 1c          	mov    %eax,0x1c(%rsp)
  4017bf:	8b 44 24 04          	mov    0x4(%rsp),%eax
  4017c3:	69 c0 e9 74 00 00    	imul   $0x74e9,%eax,%eax
  4017c9:	89 44 24 04          	mov    %eax,0x4(%rsp)
  4017cd:	8b 44 24 08          	mov    0x8(%rsp),%eax
  4017d1:	69 c0 83 4f 00 00    	imul   $0x4f83,%eax,%eax
  4017d7:	89 44 24 08          	mov    %eax,0x8(%rsp)
  4017db:	8b 44 24 0c          	mov    0xc(%rsp),%eax
  4017df:	69 c0 e3 6f 00 00    	imul   $0x6fe3,%eax,%eax
  4017e5:	89 44 24 0c          	mov    %eax,0xc(%rsp)
  4017e9:	8b 44 24 1c          	mov    0x1c(%rsp),%eax
  4017ed:	69 c0 d2 ae 00 00    	imul   $0xaed2,%eax,%eax
  4017f3:	89 44 24 1c          	mov    %eax,0x1c(%rsp)
  4017f7:	8b 44 24 24          	mov    0x24(%rsp),%eax
  4017fb:	69 c0 32 c6 00 00    	imul   $0xc632,%eax,%eax
  401801:	89 44 24 24          	mov    %eax,0x24(%rsp)
  401805:	8b 44 24 18          	mov    0x18(%rsp),%eax
  401809:	69 c0 7e 0d 00 00    	imul   $0xd7e,%eax,%eax
  40180f:	89 44 24 18          	mov    %eax,0x18(%rsp)
  401813:	8b 44 24 14          	mov    0x14(%rsp),%eax
  401817:	69 c0 0a 0b 00 00    	imul   $0xb0a,%eax,%eax
  40181d:	89 44 24 14          	mov    %eax,0x14(%rsp)
  401821:	8b 04 24             	mov    (%rsp),%eax
  401824:	69 c0 e1 49 00 00    	imul   $0x49e1,%eax,%eax
  40182a:	89 04 24             	mov    %eax,(%rsp)
  40182d:	8b 44 24 0c          	mov    0xc(%rsp),%eax
  401831:	69 c0 1c 0d 00 00    	imul   $0xd1c,%eax,%eax
  401837:	89 44 24 0c          	mov    %eax,0xc(%rsp)
  40183b:	8b 04 24             	mov    (%rsp),%eax
  40183e:	69 c0 07 13 00 00    	imul   $0x1307,%eax,%eax
  401844:	89 04 24             	mov    %eax,(%rsp)
  401847:	8b 44 24 04          	mov    0x4(%rsp),%eax
  40184b:	69 c0 6e ed 00 00    	imul   $0xed6e,%eax,%eax
  401851:	89 44 24 04          	mov    %eax,0x4(%rsp)
  401855:	8b 44 24 10          	mov    0x10(%rsp),%eax
  401859:	69 c0 4e da 00 00    	imul   $0xda4e,%eax,%eax
  40185f:	89 44 24 10          	mov    %eax,0x10(%rsp)
  401863:	8b 44 24 08          	mov    0x8(%rsp),%eax
  401867:	69 c0 48 ca 00 00    	imul   $0xca48,%eax,%eax
  40186d:	89 44 24 08          	mov    %eax,0x8(%rsp)
  401871:	8b 44 24 18          	mov    0x18(%rsp),%eax
  401875:	69 c0 57 b6 00 00    	imul   $0xb657,%eax,%eax
  40187b:	89 44 24 18          	mov    %eax,0x18(%rsp)
  40187f:	8b 44 24 10          	mov    0x10(%rsp),%eax
  401883:	69 c0 de 8e 00 00    	imul   $0x8ede,%eax,%eax
  401889:	89 44 24 10          	mov    %eax,0x10(%rsp)
  40188d:	8b 44 24 04          	mov    0x4(%rsp),%eax
  401891:	69 c0 dd 42 00 00    	imul   $0x42dd,%eax,%eax
  401897:	89 44 24 04          	mov    %eax,0x4(%rsp)
  40189b:	8b 44 24 1c          	mov    0x1c(%rsp),%eax
  40189f:	69 c0 1a 05 00 00    	imul   $0x51a,%eax,%eax
  4018a5:	89 44 24 1c          	mov    %eax,0x1c(%rsp)
  4018a9:	8b 44 24 14          	mov    0x14(%rsp),%eax
  4018ad:	69 c0 f0 cc 00 00    	imul   $0xccf0,%eax,%eax
  4018b3:	89 44 24 14          	mov    %eax,0x14(%rsp)
  4018b7:	8b 44 24 20          	mov    0x20(%rsp),%eax
  4018bb:	69 c0 62 34 00 00    	imul   $0x3462,%eax,%eax
  4018c1:	89 44 24 20          	mov    %eax,0x20(%rsp)
  4018c5:	8b 44 24 0c          	mov    0xc(%rsp),%eax
  4018c9:	69 c0 2f f5 00 00    	imul   $0xf52f,%eax,%eax
  4018cf:	89 44 24 0c          	mov    %eax,0xc(%rsp)
  4018d3:	8b 44 24 24          	mov    0x24(%rsp),%eax
  4018d7:	69 c0 0b 80 00 00    	imul   $0x800b,%eax,%eax
  4018dd:	89 44 24 24          	mov    %eax,0x24(%rsp)
  4018e1:	8b 44 24 04          	mov    0x4(%rsp),%eax
  4018e5:	69 c0 81 cb 00 00    	imul   $0xcb81,%eax,%eax
  4018eb:	89 44 24 04          	mov    %eax,0x4(%rsp)
  4018ef:	8b 44 24 10          	mov    0x10(%rsp),%eax
  4018f3:	69 c0 f7 12 00 00    	imul   $0x12f7,%eax,%eax
  4018f9:	89 44 24 10          	mov    %eax,0x10(%rsp)
  4018fd:	ba 00 00 00 00       	mov    $0x0,%edx
  401902:	b8 00 00 00 00       	mov    $0x0,%eax
  401907:	eb 0a                	jmp    401913 <scramble+0x584>
  401909:	89 d1                	mov    %edx,%ecx
  40190b:	8b 0c 8c             	mov    (%rsp,%rcx,4),%ecx
  40190e:	01 c8                	add    %ecx,%eax
  401910:	83 c2 01             	add    $0x1,%edx
  401913:	83 fa 09             	cmp    $0x9,%edx
  401916:	76 f1                	jbe    401909 <scramble+0x57a>
  401918:	48 8b 74 24 28       	mov    0x28(%rsp),%rsi
  40191d:	64 48 33 34 25 28 00 	xor    %fs:0x28,%rsi
  401924:	00 00 
  401926:	74 05                	je     40192d <scramble+0x59e>
  401928:	e8 c3 f3 ff ff       	callq  400cf0 <__stack_chk_fail@plt>
  40192d:	48 83 c4 38          	add    $0x38,%rsp
  401931:	c3                   	retq   

0000000000401932 <getbuf>:
  401932:	48 83 ec 18          	sub    $0x18,%rsp
  401936:	48 89 e7             	mov    %rsp,%rdi
  401939:	e8 a2 03 00 00       	callq  401ce0 <Gets>
  40193e:	b8 01 00 00 00       	mov    $0x1,%eax
  401943:	48 83 c4 18          	add    $0x18,%rsp
  401947:	c3                   	retq   

0000000000401948 <touch1>:
  401948:	48 83 ec 08          	sub    $0x8,%rsp
  40194c:	c7 05 c6 3b 20 00 01 	movl   $0x1,0x203bc6(%rip)        # 60551c <vlevel>
  401953:	00 00 00 
  401956:	bf e8 33 40 00       	mov    $0x4033e8,%edi
  40195b:	e8 70 f3 ff ff       	callq  400cd0 <puts@plt>
  401960:	bf 01 00 00 00       	mov    $0x1,%edi
  401965:	e8 bb 05 00 00       	callq  401f25 <validate>
  40196a:	bf 00 00 00 00       	mov    $0x0,%edi
  40196f:	e8 dc f4 ff ff       	callq  400e50 <exit@plt>

0000000000401974 <touch2>:
  401974:	48 83 ec 08          	sub    $0x8,%rsp
  401978:	89 fa                	mov    %edi,%edx
  40197a:	c7 05 98 3b 20 00 02 	movl   $0x2,0x203b98(%rip)        # 60551c <vlevel>
  401981:	00 00 00 
  401984:	39 3d 9a 3b 20 00    	cmp    %edi,0x203b9a(%rip)        # 605524 <cookie>
  40198a:	75 20                	jne    4019ac <touch2+0x38>
  40198c:	be 10 34 40 00       	mov    $0x403410,%esi
  401991:	bf 01 00 00 00       	mov    $0x1,%edi
  401996:	b8 00 00 00 00       	mov    $0x0,%eax
  40199b:	e8 60 f4 ff ff       	callq  400e00 <__printf_chk@plt>
  4019a0:	bf 02 00 00 00       	mov    $0x2,%edi
  4019a5:	e8 7b 05 00 00       	callq  401f25 <validate>
  4019aa:	eb 1e                	jmp    4019ca <touch2+0x56>
  4019ac:	be 38 34 40 00       	mov    $0x403438,%esi
  4019b1:	bf 01 00 00 00       	mov    $0x1,%edi
  4019b6:	b8 00 00 00 00       	mov    $0x0,%eax
  4019bb:	e8 40 f4 ff ff       	callq  400e00 <__printf_chk@plt>
  4019c0:	bf 02 00 00 00       	mov    $0x2,%edi
  4019c5:	e8 1d 06 00 00       	callq  401fe7 <fail>
  4019ca:	bf 00 00 00 00       	mov    $0x0,%edi
  4019cf:	e8 7c f4 ff ff       	callq  400e50 <exit@plt>

00000000004019d4 <hexmatch>:
  4019d4:	41 54                	push   %r12
  4019d6:	55                   	push   %rbp
  4019d7:	53                   	push   %rbx
  4019d8:	48 83 c4 80          	add    $0xffffffffffffff80,%rsp
  4019dc:	89 fd                	mov    %edi,%ebp
  4019de:	48 89 f3             	mov    %rsi,%rbx
  4019e1:	64 48 8b 04 25 28 00 	mov    %fs:0x28,%rax
  4019e8:	00 00 
  4019ea:	48 89 44 24 78       	mov    %rax,0x78(%rsp)
  4019ef:	31 c0                	xor    %eax,%eax
  4019f1:	e8 ca f3 ff ff       	callq  400dc0 <random@plt>
  4019f6:	48 89 c1             	mov    %rax,%rcx
  4019f9:	48 ba 0b d7 a3 70 3d 	movabs $0xa3d70a3d70a3d70b,%rdx
  401a00:	0a d7 a3 
  401a03:	48 f7 ea             	imul   %rdx
  401a06:	48 01 ca             	add    %rcx,%rdx
  401a09:	48 c1 fa 06          	sar    $0x6,%rdx
  401a0d:	48 89 c8             	mov    %rcx,%rax
  401a10:	48 c1 f8 3f          	sar    $0x3f,%rax
  401a14:	48 29 c2             	sub    %rax,%rdx
  401a17:	48 8d 04 92          	lea    (%rdx,%rdx,4),%rax
  401a1b:	48 8d 14 80          	lea    (%rax,%rax,4),%rdx
  401a1f:	48 8d 04 95 00 00 00 	lea    0x0(,%rdx,4),%rax
  401a26:	00 
  401a27:	48 29 c1             	sub    %rax,%rcx
  401a2a:	4c 8d 24 0c          	lea    (%rsp,%rcx,1),%r12
  401a2e:	41 89 e8             	mov    %ebp,%r8d
  401a31:	b9 05 34 40 00       	mov    $0x403405,%ecx
  401a36:	48 c7 c2 ff ff ff ff 	mov    $0xffffffffffffffff,%rdx
  401a3d:	be 01 00 00 00       	mov    $0x1,%esi
  401a42:	4c 89 e7             	mov    %r12,%rdi
  401a45:	b8 00 00 00 00       	mov    $0x0,%eax
  401a4a:	e8 31 f4 ff ff       	callq  400e80 <__sprintf_chk@plt>
  401a4f:	ba 09 00 00 00       	mov    $0x9,%edx
  401a54:	4c 89 e6             	mov    %r12,%rsi
  401a57:	48 89 df             	mov    %rbx,%rdi
  401a5a:	e8 51 f2 ff ff       	callq  400cb0 <strncmp@plt>
  401a5f:	85 c0                	test   %eax,%eax
  401a61:	0f 94 c0             	sete   %al
  401a64:	48 8b 5c 24 78       	mov    0x78(%rsp),%rbx
  401a69:	64 48 33 1c 25 28 00 	xor    %fs:0x28,%rbx
  401a70:	00 00 
  401a72:	74 05                	je     401a79 <hexmatch+0xa5>
  401a74:	e8 77 f2 ff ff       	callq  400cf0 <__stack_chk_fail@plt>
  401a79:	0f b6 c0             	movzbl %al,%eax
  401a7c:	48 83 ec 80          	sub    $0xffffffffffffff80,%rsp
  401a80:	5b                   	pop    %rbx
  401a81:	5d                   	pop    %rbp
  401a82:	41 5c                	pop    %r12
  401a84:	c3                   	retq   

0000000000401a85 <touch3>:
  401a85:	53                   	push   %rbx
  401a86:	48 89 fb             	mov    %rdi,%rbx
  401a89:	c7 05 89 3a 20 00 03 	movl   $0x3,0x203a89(%rip)        # 60551c <vlevel>
  401a90:	00 00 00 
  401a93:	48 89 fe             	mov    %rdi,%rsi
  401a96:	8b 3d 88 3a 20 00    	mov    0x203a88(%rip),%edi        # 605524 <cookie>
  401a9c:	e8 33 ff ff ff       	callq  4019d4 <hexmatch>
  401aa1:	85 c0                	test   %eax,%eax
  401aa3:	74 23                	je     401ac8 <touch3+0x43>
  401aa5:	48 89 da             	mov    %rbx,%rdx
  401aa8:	be 60 34 40 00       	mov    $0x403460,%esi
  401aad:	bf 01 00 00 00       	mov    $0x1,%edi
  401ab2:	b8 00 00 00 00       	mov    $0x0,%eax
  401ab7:	e8 44 f3 ff ff       	callq  400e00 <__printf_chk@plt>
  401abc:	bf 03 00 00 00       	mov    $0x3,%edi
  401ac1:	e8 5f 04 00 00       	callq  401f25 <validate>
  401ac6:	eb 21                	jmp    401ae9 <touch3+0x64>
  401ac8:	48 89 da             	mov    %rbx,%rdx
  401acb:	be 88 34 40 00       	mov    $0x403488,%esi
  401ad0:	bf 01 00 00 00       	mov    $0x1,%edi
  401ad5:	b8 00 00 00 00       	mov    $0x0,%eax
  401ada:	e8 21 f3 ff ff       	callq  400e00 <__printf_chk@plt>
  401adf:	bf 03 00 00 00       	mov    $0x3,%edi
  401ae4:	e8 fe 04 00 00       	callq  401fe7 <fail>
  401ae9:	bf 00 00 00 00       	mov    $0x0,%edi
  401aee:	e8 5d f3 ff ff       	callq  400e50 <exit@plt>

0000000000401af3 <test>:
  401af3:	48 83 ec 08          	sub    $0x8,%rsp
  401af7:	b8 00 00 00 00       	mov    $0x0,%eax
  401afc:	e8 31 fe ff ff       	callq  401932 <getbuf>
  401b01:	89 c2                	mov    %eax,%edx
  401b03:	be b0 34 40 00       	mov    $0x4034b0,%esi
  401b08:	bf 01 00 00 00       	mov    $0x1,%edi
  401b0d:	b8 00 00 00 00       	mov    $0x0,%eax
  401b12:	e8 e9 f2 ff ff       	callq  400e00 <__printf_chk@plt>
  401b17:	48 83 c4 08          	add    $0x8,%rsp
  401b1b:	c3                   	retq   

0000000000401b1c <start_farm>:
  401b1c:	b8 01 00 00 00       	mov    $0x1,%eax
  401b21:	c3                   	retq   

0000000000401b22 <addval_497>:
  401b22:	8d 87 48 89 c7 90    	lea    -0x6f3876b8(%rdi),%eax
  401b28:	c3                   	retq   

0000000000401b29 <setval_159>:
  401b29:	c7 07 75 ac 31 58    	movl   $0x5831ac75,(%rdi)
  401b2f:	c3                   	retq   

0000000000401b30 <getval_269>:
  401b30:	b8 d8 18 90 90       	mov    $0x909018d8,%eax
  401b35:	c3                   	retq   

0000000000401b36 <addval_394>:
  401b36:	8d 87 85 48 09 c7    	lea    -0x38f6b77b(%rdi),%eax
  401b3c:	c3                   	retq   

0000000000401b3d <getval_404>:
  401b3d:	b8 34 48 89 c7       	mov    $0xc7894834,%eax
  401b42:	c3                   	retq   

0000000000401b43 <addval_193>:
  401b43:	8d 87 52 58 c3 8f    	lea    -0x703ca7ae(%rdi),%eax
  401b49:	c3                   	retq   

0000000000401b4a <setval_166>:
  401b4a:	c7 07 48 89 c7 c1    	movl   $0xc1c78948,(%rdi)
  401b50:	c3                   	retq   

0000000000401b51 <getval_208>:
  401b51:	b8 ec 9e bf 18       	mov    $0x18bf9eec,%eax
  401b56:	c3                   	retq   

0000000000401b57 <mid_farm>:
  401b57:	b8 01 00 00 00       	mov    $0x1,%eax
  401b5c:	c3                   	retq   

0000000000401b5d <add_xy>:
  401b5d:	48 8d 04 37          	lea    (%rdi,%rsi,1),%rax
  401b61:	c3                   	retq   

0000000000401b62 <setval_451>:
  401b62:	c7 07 39 81 ce c3    	movl   $0xc3ce8139,(%rdi)
  401b68:	c3                   	retq   

0000000000401b69 <getval_229>:
  401b69:	b8 89 ce 28 c0       	mov    $0xc028ce89,%eax
  401b6e:	c3                   	retq   

0000000000401b6f <addval_314>:
  401b6f:	8d 87 8b ce 84 c0    	lea    -0x3f7b3175(%rdi),%eax
  401b75:	c3                   	retq   

0000000000401b76 <getval_105>:
  401b76:	b8 48 89 e0 91       	mov    $0x91e08948,%eax
  401b7b:	c3                   	retq   

0000000000401b7c <addval_158>:
  401b7c:	8d 87 8b c2 90 c3    	lea    -0x3c6f3d75(%rdi),%eax
  401b82:	c3                   	retq   

0000000000401b83 <getval_259>:
  401b83:	b8 89 ce 20 c0       	mov    $0xc020ce89,%eax
  401b88:	c3                   	retq   

0000000000401b89 <setval_211>:
  401b89:	c7 07 48 89 e0 c3    	movl   $0xc3e08948,(%rdi)
  401b8f:	c3                   	retq   

0000000000401b90 <addval_186>:
  401b90:	8d 87 c8 89 e0 90    	lea    -0x6f1f7638(%rdi),%eax
  401b96:	c3                   	retq   

0000000000401b97 <setval_146>:
  401b97:	c7 07 89 c2 90 c3    	movl   $0xc390c289,(%rdi)
  401b9d:	c3                   	retq   

0000000000401b9e <setval_165>:
  401b9e:	c7 07 48 09 e0 90    	movl   $0x90e00948,(%rdi)
  401ba4:	c3                   	retq   

0000000000401ba5 <getval_112>:
  401ba5:	b8 72 74 89 ce       	mov    $0xce897472,%eax
  401baa:	c3                   	retq   

0000000000401bab <addval_198>:
  401bab:	8d 87 8b c2 84 d2    	lea    -0x2d7b3d75(%rdi),%eax
  401bb1:	c3                   	retq   

0000000000401bb2 <setval_164>:
  401bb2:	c7 07 d4 4c 89 e0    	movl   $0xe0894cd4,(%rdi)
  401bb8:	c3                   	retq   

0000000000401bb9 <setval_191>:
  401bb9:	c7 07 89 c2 20 c9    	movl   $0xc920c289,(%rdi)
  401bbf:	c3                   	retq   

0000000000401bc0 <setval_271>:
  401bc0:	c7 07 99 d1 20 d2    	movl   $0xd220d199,(%rdi)
  401bc6:	c3                   	retq   

0000000000401bc7 <getval_462>:
  401bc7:	b8 48 89 e0 c7       	mov    $0xc7e08948,%eax
  401bcc:	c3                   	retq   

0000000000401bcd <setval_321>:
  401bcd:	c7 07 89 ce 30 c9    	movl   $0xc930ce89,(%rdi)
  401bd3:	c3                   	retq   

0000000000401bd4 <addval_447>:
  401bd4:	8d 87 88 c2 20 d2    	lea    -0x2ddf3d78(%rdi),%eax
  401bda:	c3                   	retq   

0000000000401bdb <getval_297>:
  401bdb:	b8 27 48 89 e0       	mov    $0xe0894827,%eax
  401be0:	c3                   	retq   

0000000000401be1 <setval_144>:
  401be1:	c7 07 89 c2 a4 d2    	movl   $0xd2a4c289,(%rdi)
  401be7:	c3                   	retq   

0000000000401be8 <addval_418>:
  401be8:	8d 87 89 d1 92 c3    	lea    -0x3c6d2e77(%rdi),%eax
  401bee:	c3                   	retq   

0000000000401bef <addval_250>:
  401bef:	8d 87 89 d1 08 c9    	lea    -0x36f72e77(%rdi),%eax
  401bf5:	c3                   	retq   

0000000000401bf6 <setval_102>:
  401bf6:	c7 07 88 c2 08 c9    	movl   $0xc908c288,(%rdi)
  401bfc:	c3                   	retq   

0000000000401bfd <setval_174>:
  401bfd:	c7 07 48 89 e0 91    	movl   $0x91e08948,(%rdi)
  401c03:	c3                   	retq   

0000000000401c04 <setval_270>:
  401c04:	c7 07 a9 d1 84 c9    	movl   $0xc984d1a9,(%rdi)
  401c0a:	c3                   	retq   

0000000000401c0b <setval_273>:
  401c0b:	c7 07 89 d1 84 c9    	movl   $0xc984d189,(%rdi)
  401c11:	c3                   	retq   

0000000000401c12 <getval_376>:
  401c12:	b8 4a 81 ce 90       	mov    $0x90ce814a,%eax
  401c17:	c3                   	retq   

0000000000401c18 <getval_460>:
  401c18:	b8 89 d1 28 db       	mov    $0xdb28d189,%eax
  401c1d:	c3                   	retq   

0000000000401c1e <setval_141>:
  401c1e:	c7 07 75 89 ce c1    	movl   $0xc1ce8975,(%rdi)
  401c24:	c3                   	retq   

0000000000401c25 <addval_181>:
  401c25:	8d 87 89 d1 92 90    	lea    -0x6f6d2e77(%rdi),%eax
  401c2b:	c3                   	retq   

0000000000401c2c <addval_143>:
  401c2c:	8d 87 89 c2 94 c3    	lea    -0x3c6b3d77(%rdi),%eax
  401c32:	c3                   	retq   

0000000000401c33 <addval_318>:
  401c33:	8d 87 a9 d1 84 db    	lea    -0x247b2e57(%rdi),%eax
  401c39:	c3                   	retq   

0000000000401c3a <end_farm>:
  401c3a:	b8 01 00 00 00       	mov    $0x1,%eax
  401c3f:	c3                   	retq   

0000000000401c40 <save_char>:
  401c40:	8b 05 fe 44 20 00    	mov    0x2044fe(%rip),%eax        # 606144 <gets_cnt>
  401c46:	3d ff 03 00 00       	cmp    $0x3ff,%eax
  401c4b:	7f 49                	jg     401c96 <save_char+0x56>
  401c4d:	8d 14 40             	lea    (%rax,%rax,2),%edx
  401c50:	89 f9                	mov    %edi,%ecx
  401c52:	c0 e9 04             	shr    $0x4,%cl
  401c55:	83 e1 0f             	and    $0xf,%ecx
  401c58:	0f b6 b1 d0 37 40 00 	movzbl 0x4037d0(%rcx),%esi
  401c5f:	48 63 ca             	movslq %edx,%rcx
  401c62:	40 88 b1 40 55 60 00 	mov    %sil,0x605540(%rcx)
  401c69:	8d 4a 01             	lea    0x1(%rdx),%ecx
  401c6c:	83 e7 0f             	and    $0xf,%edi
  401c6f:	0f b6 b7 d0 37 40 00 	movzbl 0x4037d0(%rdi),%esi
  401c76:	48 63 c9             	movslq %ecx,%rcx
  401c79:	40 88 b1 40 55 60 00 	mov    %sil,0x605540(%rcx)
  401c80:	83 c2 02             	add    $0x2,%edx
  401c83:	48 63 d2             	movslq %edx,%rdx
  401c86:	c6 82 40 55 60 00 20 	movb   $0x20,0x605540(%rdx)
  401c8d:	83 c0 01             	add    $0x1,%eax
  401c90:	89 05 ae 44 20 00    	mov    %eax,0x2044ae(%rip)        # 606144 <gets_cnt>
  401c96:	f3 c3                	repz retq 

0000000000401c98 <save_term>:
  401c98:	8b 05 a6 44 20 00    	mov    0x2044a6(%rip),%eax        # 606144 <gets_cnt>
  401c9e:	8d 04 40             	lea    (%rax,%rax,2),%eax
  401ca1:	48 98                	cltq   
  401ca3:	c6 80 40 55 60 00 00 	movb   $0x0,0x605540(%rax)
  401caa:	c3                   	retq   

0000000000401cab <check_fail>:
  401cab:	48 83 ec 08          	sub    $0x8,%rsp
  401caf:	0f be 15 92 44 20 00 	movsbl 0x204492(%rip),%edx        # 606148 <target_prefix>
  401cb6:	41 b8 40 55 60 00    	mov    $0x605540,%r8d
  401cbc:	8b 0d 56 38 20 00    	mov    0x203856(%rip),%ecx        # 605518 <check_level>
  401cc2:	be d3 34 40 00       	mov    $0x4034d3,%esi
  401cc7:	bf 01 00 00 00       	mov    $0x1,%edi
  401ccc:	b8 00 00 00 00       	mov    $0x0,%eax
  401cd1:	e8 2a f1 ff ff       	callq  400e00 <__printf_chk@plt>
  401cd6:	bf 01 00 00 00       	mov    $0x1,%edi
  401cdb:	e8 70 f1 ff ff       	callq  400e50 <exit@plt>

0000000000401ce0 <Gets>:
  401ce0:	41 54                	push   %r12
  401ce2:	55                   	push   %rbp
  401ce3:	53                   	push   %rbx
  401ce4:	49 89 fc             	mov    %rdi,%r12
  401ce7:	c7 05 53 44 20 00 00 	movl   $0x0,0x204453(%rip)        # 606144 <gets_cnt>
  401cee:	00 00 00 
  401cf1:	48 89 fb             	mov    %rdi,%rbx
  401cf4:	eb 11                	jmp    401d07 <Gets+0x27>
  401cf6:	48 8d 6b 01          	lea    0x1(%rbx),%rbp
  401cfa:	88 03                	mov    %al,(%rbx)
  401cfc:	0f b6 f8             	movzbl %al,%edi
  401cff:	e8 3c ff ff ff       	callq  401c40 <save_char>
  401d04:	48 89 eb             	mov    %rbp,%rbx
  401d07:	48 8b 3d 02 38 20 00 	mov    0x203802(%rip),%rdi        # 605510 <infile>
  401d0e:	e8 bd f0 ff ff       	callq  400dd0 <_IO_getc@plt>
  401d13:	83 f8 ff             	cmp    $0xffffffff,%eax
  401d16:	74 05                	je     401d1d <Gets+0x3d>
  401d18:	83 f8 0a             	cmp    $0xa,%eax
  401d1b:	75 d9                	jne    401cf6 <Gets+0x16>
  401d1d:	c6 03 00             	movb   $0x0,(%rbx)
  401d20:	b8 00 00 00 00       	mov    $0x0,%eax
  401d25:	e8 6e ff ff ff       	callq  401c98 <save_term>
  401d2a:	4c 89 e0             	mov    %r12,%rax
  401d2d:	5b                   	pop    %rbx
  401d2e:	5d                   	pop    %rbp
  401d2f:	41 5c                	pop    %r12
  401d31:	c3                   	retq   

0000000000401d32 <notify_server>:
  401d32:	53                   	push   %rbx
  401d33:	48 81 ec 10 40 00 00 	sub    $0x4010,%rsp
  401d3a:	64 48 8b 04 25 28 00 	mov    %fs:0x28,%rax
  401d41:	00 00 
  401d43:	48 89 84 24 08 40 00 	mov    %rax,0x4008(%rsp)
  401d4a:	00 
  401d4b:	31 c0                	xor    %eax,%eax
  401d4d:	83 3d d4 37 20 00 00 	cmpl   $0x0,0x2037d4(%rip)        # 605528 <is_checker>
  401d54:	0f 85 aa 01 00 00    	jne    401f04 <notify_server+0x1d2>
  401d5a:	89 fb                	mov    %edi,%ebx
  401d5c:	8b 05 e2 43 20 00    	mov    0x2043e2(%rip),%eax        # 606144 <gets_cnt>
  401d62:	83 c0 64             	add    $0x64,%eax
  401d65:	3d 00 20 00 00       	cmp    $0x2000,%eax
  401d6a:	7e 1e                	jle    401d8a <notify_server+0x58>
  401d6c:	be 08 36 40 00       	mov    $0x403608,%esi
  401d71:	bf 01 00 00 00       	mov    $0x1,%edi
  401d76:	b8 00 00 00 00       	mov    $0x0,%eax
  401d7b:	e8 80 f0 ff ff       	callq  400e00 <__printf_chk@plt>
  401d80:	bf 01 00 00 00       	mov    $0x1,%edi
  401d85:	e8 c6 f0 ff ff       	callq  400e50 <exit@plt>
  401d8a:	0f be 05 b7 43 20 00 	movsbl 0x2043b7(%rip),%eax        # 606148 <target_prefix>
  401d91:	83 3d 10 37 20 00 00 	cmpl   $0x0,0x203710(%rip)        # 6054a8 <notify>
  401d98:	74 08                	je     401da2 <notify_server+0x70>
  401d9a:	8b 15 80 37 20 00    	mov    0x203780(%rip),%edx        # 605520 <authkey>
  401da0:	eb 05                	jmp    401da7 <notify_server+0x75>
  401da2:	ba ff ff ff ff       	mov    $0xffffffff,%edx
  401da7:	85 db                	test   %ebx,%ebx
  401da9:	74 08                	je     401db3 <notify_server+0x81>
  401dab:	41 b9 e9 34 40 00    	mov    $0x4034e9,%r9d
  401db1:	eb 06                	jmp    401db9 <notify_server+0x87>
  401db3:	41 b9 ee 34 40 00    	mov    $0x4034ee,%r9d
  401db9:	68 40 55 60 00       	pushq  $0x605540
  401dbe:	56                   	push   %rsi
  401dbf:	50                   	push   %rax
  401dc0:	52                   	push   %rdx
  401dc1:	44 8b 05 a0 33 20 00 	mov    0x2033a0(%rip),%r8d        # 605168 <target_id>
  401dc8:	b9 f3 34 40 00       	mov    $0x4034f3,%ecx
  401dcd:	ba 00 20 00 00       	mov    $0x2000,%edx
  401dd2:	be 01 00 00 00       	mov    $0x1,%esi
  401dd7:	48 8d 7c 24 20       	lea    0x20(%rsp),%rdi
  401ddc:	b8 00 00 00 00       	mov    $0x0,%eax
  401de1:	e8 9a f0 ff ff       	callq  400e80 <__sprintf_chk@plt>
  401de6:	48 83 c4 20          	add    $0x20,%rsp
  401dea:	83 3d b7 36 20 00 00 	cmpl   $0x0,0x2036b7(%rip)        # 6054a8 <notify>
  401df1:	0f 84 81 00 00 00    	je     401e78 <notify_server+0x146>
  401df7:	85 db                	test   %ebx,%ebx
  401df9:	74 6e                	je     401e69 <notify_server+0x137>
  401dfb:	4c 8d 8c 24 00 20 00 	lea    0x2000(%rsp),%r9
  401e02:	00 
  401e03:	41 b8 00 00 00 00    	mov    $0x0,%r8d
  401e09:	48 89 e1             	mov    %rsp,%rcx
  401e0c:	48 8b 15 5d 33 20 00 	mov    0x20335d(%rip),%rdx        # 605170 <lab>
  401e13:	48 8b 35 5e 33 20 00 	mov    0x20335e(%rip),%rsi        # 605178 <course>
  401e1a:	48 8b 3d 3f 33 20 00 	mov    0x20333f(%rip),%rdi        # 605160 <user_id>
  401e21:	e8 ef 10 00 00       	callq  402f15 <driver_post>
  401e26:	85 c0                	test   %eax,%eax
  401e28:	79 26                	jns    401e50 <notify_server+0x11e>
  401e2a:	48 8d 94 24 00 20 00 	lea    0x2000(%rsp),%rdx
  401e31:	00 
  401e32:	be 0f 35 40 00       	mov    $0x40350f,%esi
  401e37:	bf 01 00 00 00       	mov    $0x1,%edi
  401e3c:	b8 00 00 00 00       	mov    $0x0,%eax
  401e41:	e8 ba ef ff ff       	callq  400e00 <__printf_chk@plt>
  401e46:	bf 01 00 00 00       	mov    $0x1,%edi
  401e4b:	e8 00 f0 ff ff       	callq  400e50 <exit@plt>
  401e50:	bf 38 36 40 00       	mov    $0x403638,%edi
  401e55:	e8 76 ee ff ff       	callq  400cd0 <puts@plt>
  401e5a:	bf 1b 35 40 00       	mov    $0x40351b,%edi
  401e5f:	e8 6c ee ff ff       	callq  400cd0 <puts@plt>
  401e64:	e9 9b 00 00 00       	jmpq   401f04 <notify_server+0x1d2>
  401e69:	bf 25 35 40 00       	mov    $0x403525,%edi
  401e6e:	e8 5d ee ff ff       	callq  400cd0 <puts@plt>
  401e73:	e9 8c 00 00 00       	jmpq   401f04 <notify_server+0x1d2>
  401e78:	85 db                	test   %ebx,%ebx
  401e7a:	74 07                	je     401e83 <notify_server+0x151>
  401e7c:	ba e9 34 40 00       	mov    $0x4034e9,%edx
  401e81:	eb 05                	jmp    401e88 <notify_server+0x156>
  401e83:	ba ee 34 40 00       	mov    $0x4034ee,%edx
  401e88:	be 70 36 40 00       	mov    $0x403670,%esi
  401e8d:	bf 01 00 00 00       	mov    $0x1,%edi
  401e92:	b8 00 00 00 00       	mov    $0x0,%eax
  401e97:	e8 64 ef ff ff       	callq  400e00 <__printf_chk@plt>
  401e9c:	48 8b 15 bd 32 20 00 	mov    0x2032bd(%rip),%rdx        # 605160 <user_id>
  401ea3:	be 2c 35 40 00       	mov    $0x40352c,%esi
  401ea8:	bf 01 00 00 00       	mov    $0x1,%edi
  401ead:	b8 00 00 00 00       	mov    $0x0,%eax
  401eb2:	e8 49 ef ff ff       	callq  400e00 <__printf_chk@plt>
  401eb7:	48 8b 15 ba 32 20 00 	mov    0x2032ba(%rip),%rdx        # 605178 <course>
  401ebe:	be 39 35 40 00       	mov    $0x403539,%esi
  401ec3:	bf 01 00 00 00       	mov    $0x1,%edi
  401ec8:	b8 00 00 00 00       	mov    $0x0,%eax
  401ecd:	e8 2e ef ff ff       	callq  400e00 <__printf_chk@plt>
  401ed2:	48 8b 15 97 32 20 00 	mov    0x203297(%rip),%rdx        # 605170 <lab>
  401ed9:	be 45 35 40 00       	mov    $0x403545,%esi
  401ede:	bf 01 00 00 00       	mov    $0x1,%edi
  401ee3:	b8 00 00 00 00       	mov    $0x0,%eax
  401ee8:	e8 13 ef ff ff       	callq  400e00 <__printf_chk@plt>
  401eed:	48 89 e2             	mov    %rsp,%rdx
  401ef0:	be 4e 35 40 00       	mov    $0x40354e,%esi
  401ef5:	bf 01 00 00 00       	mov    $0x1,%edi
  401efa:	b8 00 00 00 00       	mov    $0x0,%eax
  401eff:	e8 fc ee ff ff       	callq  400e00 <__printf_chk@plt>
  401f04:	48 8b 84 24 08 40 00 	mov    0x4008(%rsp),%rax
  401f0b:	00 
  401f0c:	64 48 33 04 25 28 00 	xor    %fs:0x28,%rax
  401f13:	00 00 
  401f15:	74 05                	je     401f1c <notify_server+0x1ea>
  401f17:	e8 d4 ed ff ff       	callq  400cf0 <__stack_chk_fail@plt>
  401f1c:	48 81 c4 10 40 00 00 	add    $0x4010,%rsp
  401f23:	5b                   	pop    %rbx
  401f24:	c3                   	retq   

0000000000401f25 <validate>:
  401f25:	53                   	push   %rbx
  401f26:	89 fb                	mov    %edi,%ebx
  401f28:	83 3d f9 35 20 00 00 	cmpl   $0x0,0x2035f9(%rip)        # 605528 <is_checker>
  401f2f:	74 6b                	je     401f9c <validate+0x77>
  401f31:	39 3d e5 35 20 00    	cmp    %edi,0x2035e5(%rip)        # 60551c <vlevel>
  401f37:	74 14                	je     401f4d <validate+0x28>
  401f39:	bf 5a 35 40 00       	mov    $0x40355a,%edi
  401f3e:	e8 8d ed ff ff       	callq  400cd0 <puts@plt>
  401f43:	b8 00 00 00 00       	mov    $0x0,%eax
  401f48:	e8 5e fd ff ff       	callq  401cab <check_fail>
  401f4d:	8b 15 c5 35 20 00    	mov    0x2035c5(%rip),%edx        # 605518 <check_level>
  401f53:	39 d7                	cmp    %edx,%edi
  401f55:	74 20                	je     401f77 <validate+0x52>
  401f57:	89 f9                	mov    %edi,%ecx
  401f59:	be 98 36 40 00       	mov    $0x403698,%esi
  401f5e:	bf 01 00 00 00       	mov    $0x1,%edi
  401f63:	b8 00 00 00 00       	mov    $0x0,%eax
  401f68:	e8 93 ee ff ff       	callq  400e00 <__printf_chk@plt>
  401f6d:	b8 00 00 00 00       	mov    $0x0,%eax
  401f72:	e8 34 fd ff ff       	callq  401cab <check_fail>
  401f77:	0f be 15 ca 41 20 00 	movsbl 0x2041ca(%rip),%edx        # 606148 <target_prefix>
  401f7e:	41 b8 40 55 60 00    	mov    $0x605540,%r8d
  401f84:	89 f9                	mov    %edi,%ecx
  401f86:	be 78 35 40 00       	mov    $0x403578,%esi
  401f8b:	bf 01 00 00 00       	mov    $0x1,%edi
  401f90:	b8 00 00 00 00       	mov    $0x0,%eax
  401f95:	e8 66 ee ff ff       	callq  400e00 <__printf_chk@plt>
  401f9a:	eb 49                	jmp    401fe5 <validate+0xc0>
  401f9c:	3b 3d 7a 35 20 00    	cmp    0x20357a(%rip),%edi        # 60551c <vlevel>
  401fa2:	74 18                	je     401fbc <validate+0x97>
  401fa4:	bf 5a 35 40 00       	mov    $0x40355a,%edi
  401fa9:	e8 22 ed ff ff       	callq  400cd0 <puts@plt>
  401fae:	89 de                	mov    %ebx,%esi
  401fb0:	bf 00 00 00 00       	mov    $0x0,%edi
  401fb5:	e8 78 fd ff ff       	callq  401d32 <notify_server>
  401fba:	eb 29                	jmp    401fe5 <validate+0xc0>
  401fbc:	0f be 0d 85 41 20 00 	movsbl 0x204185(%rip),%ecx        # 606148 <target_prefix>
  401fc3:	89 fa                	mov    %edi,%edx
  401fc5:	be c0 36 40 00       	mov    $0x4036c0,%esi
  401fca:	bf 01 00 00 00       	mov    $0x1,%edi
  401fcf:	b8 00 00 00 00       	mov    $0x0,%eax
  401fd4:	e8 27 ee ff ff       	callq  400e00 <__printf_chk@plt>
  401fd9:	89 de                	mov    %ebx,%esi
  401fdb:	bf 01 00 00 00       	mov    $0x1,%edi
  401fe0:	e8 4d fd ff ff       	callq  401d32 <notify_server>
  401fe5:	5b                   	pop    %rbx
  401fe6:	c3                   	retq   

0000000000401fe7 <fail>:
  401fe7:	48 83 ec 08          	sub    $0x8,%rsp
  401feb:	83 3d 36 35 20 00 00 	cmpl   $0x0,0x203536(%rip)        # 605528 <is_checker>
  401ff2:	74 0a                	je     401ffe <fail+0x17>
  401ff4:	b8 00 00 00 00       	mov    $0x0,%eax
  401ff9:	e8 ad fc ff ff       	callq  401cab <check_fail>
  401ffe:	89 fe                	mov    %edi,%esi
  402000:	bf 00 00 00 00       	mov    $0x0,%edi
  402005:	e8 28 fd ff ff       	callq  401d32 <notify_server>
  40200a:	48 83 c4 08          	add    $0x8,%rsp
  40200e:	c3                   	retq   

000000000040200f <bushandler>:
  40200f:	48 83 ec 08          	sub    $0x8,%rsp
  402013:	83 3d 0e 35 20 00 00 	cmpl   $0x0,0x20350e(%rip)        # 605528 <is_checker>
  40201a:	74 14                	je     402030 <bushandler+0x21>
  40201c:	bf 8d 35 40 00       	mov    $0x40358d,%edi
  402021:	e8 aa ec ff ff       	callq  400cd0 <puts@plt>
  402026:	b8 00 00 00 00       	mov    $0x0,%eax
  40202b:	e8 7b fc ff ff       	callq  401cab <check_fail>
  402030:	bf f8 36 40 00       	mov    $0x4036f8,%edi
  402035:	e8 96 ec ff ff       	callq  400cd0 <puts@plt>
  40203a:	bf 97 35 40 00       	mov    $0x403597,%edi
  40203f:	e8 8c ec ff ff       	callq  400cd0 <puts@plt>
  402044:	be 00 00 00 00       	mov    $0x0,%esi
  402049:	bf 00 00 00 00       	mov    $0x0,%edi
  40204e:	e8 df fc ff ff       	callq  401d32 <notify_server>
  402053:	bf 01 00 00 00       	mov    $0x1,%edi
  402058:	e8 f3 ed ff ff       	callq  400e50 <exit@plt>

000000000040205d <seghandler>:
  40205d:	48 83 ec 08          	sub    $0x8,%rsp
  402061:	83 3d c0 34 20 00 00 	cmpl   $0x0,0x2034c0(%rip)        # 605528 <is_checker>
  402068:	74 14                	je     40207e <seghandler+0x21>
  40206a:	bf ad 35 40 00       	mov    $0x4035ad,%edi
  40206f:	e8 5c ec ff ff       	callq  400cd0 <puts@plt>
  402074:	b8 00 00 00 00       	mov    $0x0,%eax
  402079:	e8 2d fc ff ff       	callq  401cab <check_fail>
  40207e:	bf 18 37 40 00       	mov    $0x403718,%edi
  402083:	e8 48 ec ff ff       	callq  400cd0 <puts@plt>
  402088:	bf 97 35 40 00       	mov    $0x403597,%edi
  40208d:	e8 3e ec ff ff       	callq  400cd0 <puts@plt>
  402092:	be 00 00 00 00       	mov    $0x0,%esi
  402097:	bf 00 00 00 00       	mov    $0x0,%edi
  40209c:	e8 91 fc ff ff       	callq  401d32 <notify_server>
  4020a1:	bf 01 00 00 00       	mov    $0x1,%edi
  4020a6:	e8 a5 ed ff ff       	callq  400e50 <exit@plt>

00000000004020ab <illegalhandler>:
  4020ab:	48 83 ec 08          	sub    $0x8,%rsp
  4020af:	83 3d 72 34 20 00 00 	cmpl   $0x0,0x203472(%rip)        # 605528 <is_checker>
  4020b6:	74 14                	je     4020cc <illegalhandler+0x21>
  4020b8:	bf c0 35 40 00       	mov    $0x4035c0,%edi
  4020bd:	e8 0e ec ff ff       	callq  400cd0 <puts@plt>
  4020c2:	b8 00 00 00 00       	mov    $0x0,%eax
  4020c7:	e8 df fb ff ff       	callq  401cab <check_fail>
  4020cc:	bf 40 37 40 00       	mov    $0x403740,%edi
  4020d1:	e8 fa eb ff ff       	callq  400cd0 <puts@plt>
  4020d6:	bf 97 35 40 00       	mov    $0x403597,%edi
  4020db:	e8 f0 eb ff ff       	callq  400cd0 <puts@plt>
  4020e0:	be 00 00 00 00       	mov    $0x0,%esi
  4020e5:	bf 00 00 00 00       	mov    $0x0,%edi
  4020ea:	e8 43 fc ff ff       	callq  401d32 <notify_server>
  4020ef:	bf 01 00 00 00       	mov    $0x1,%edi
  4020f4:	e8 57 ed ff ff       	callq  400e50 <exit@plt>

00000000004020f9 <sigalrmhandler>:
  4020f9:	48 83 ec 08          	sub    $0x8,%rsp
  4020fd:	83 3d 24 34 20 00 00 	cmpl   $0x0,0x203424(%rip)        # 605528 <is_checker>
  402104:	74 14                	je     40211a <sigalrmhandler+0x21>
  402106:	bf d4 35 40 00       	mov    $0x4035d4,%edi
  40210b:	e8 c0 eb ff ff       	callq  400cd0 <puts@plt>
  402110:	b8 00 00 00 00       	mov    $0x0,%eax
  402115:	e8 91 fb ff ff       	callq  401cab <check_fail>
  40211a:	ba 05 00 00 00       	mov    $0x5,%edx
  40211f:	be 70 37 40 00       	mov    $0x403770,%esi
  402124:	bf 01 00 00 00       	mov    $0x1,%edi
  402129:	b8 00 00 00 00       	mov    $0x0,%eax
  40212e:	e8 cd ec ff ff       	callq  400e00 <__printf_chk@plt>
  402133:	be 00 00 00 00       	mov    $0x0,%esi
  402138:	bf 00 00 00 00       	mov    $0x0,%edi
  40213d:	e8 f0 fb ff ff       	callq  401d32 <notify_server>
  402142:	bf 01 00 00 00       	mov    $0x1,%edi
  402147:	e8 04 ed ff ff       	callq  400e50 <exit@plt>

000000000040214c <launch>:
  40214c:	55                   	push   %rbp
  40214d:	48 89 e5             	mov    %rsp,%rbp
  402150:	48 83 ec 10          	sub    $0x10,%rsp
  402154:	48 89 fa             	mov    %rdi,%rdx
  402157:	64 48 8b 04 25 28 00 	mov    %fs:0x28,%rax
  40215e:	00 00 
  402160:	48 89 45 f8          	mov    %rax,-0x8(%rbp)
  402164:	31 c0                	xor    %eax,%eax
  402166:	48 8d 47 1e          	lea    0x1e(%rdi),%rax
  40216a:	48 83 e0 f0          	and    $0xfffffffffffffff0,%rax
  40216e:	48 29 c4             	sub    %rax,%rsp
  402171:	48 8d 7c 24 0f       	lea    0xf(%rsp),%rdi
  402176:	48 83 e7 f0          	and    $0xfffffffffffffff0,%rdi
  40217a:	be f4 00 00 00       	mov    $0xf4,%esi
  40217f:	e8 8c eb ff ff       	callq  400d10 <memset@plt>
  402184:	48 8b 05 35 33 20 00 	mov    0x203335(%rip),%rax        # 6054c0 <stdin@@GLIBC_2.2.5>
  40218b:	48 39 05 7e 33 20 00 	cmp    %rax,0x20337e(%rip)        # 605510 <infile>
  402192:	75 14                	jne    4021a8 <launch+0x5c>
  402194:	be dc 35 40 00       	mov    $0x4035dc,%esi
  402199:	bf 01 00 00 00       	mov    $0x1,%edi
  40219e:	b8 00 00 00 00       	mov    $0x0,%eax
  4021a3:	e8 58 ec ff ff       	callq  400e00 <__printf_chk@plt>
  4021a8:	c7 05 6a 33 20 00 00 	movl   $0x0,0x20336a(%rip)        # 60551c <vlevel>
  4021af:	00 00 00 
  4021b2:	b8 00 00 00 00       	mov    $0x0,%eax
  4021b7:	e8 37 f9 ff ff       	callq  401af3 <test>
  4021bc:	83 3d 65 33 20 00 00 	cmpl   $0x0,0x203365(%rip)        # 605528 <is_checker>
  4021c3:	74 14                	je     4021d9 <launch+0x8d>
  4021c5:	bf e9 35 40 00       	mov    $0x4035e9,%edi
  4021ca:	e8 01 eb ff ff       	callq  400cd0 <puts@plt>
  4021cf:	b8 00 00 00 00       	mov    $0x0,%eax
  4021d4:	e8 d2 fa ff ff       	callq  401cab <check_fail>
  4021d9:	bf f4 35 40 00       	mov    $0x4035f4,%edi
  4021de:	e8 ed ea ff ff       	callq  400cd0 <puts@plt>
  4021e3:	48 8b 45 f8          	mov    -0x8(%rbp),%rax
  4021e7:	64 48 33 04 25 28 00 	xor    %fs:0x28,%rax
  4021ee:	00 00 
  4021f0:	74 05                	je     4021f7 <launch+0xab>
  4021f2:	e8 f9 ea ff ff       	callq  400cf0 <__stack_chk_fail@plt>
  4021f7:	c9                   	leaveq 
  4021f8:	c3                   	retq   

00000000004021f9 <stable_launch>:
  4021f9:	53                   	push   %rbx
  4021fa:	48 89 3d 07 33 20 00 	mov    %rdi,0x203307(%rip)        # 605508 <global_offset>
  402201:	41 b9 00 00 00 00    	mov    $0x0,%r9d
  402207:	41 b8 00 00 00 00    	mov    $0x0,%r8d
  40220d:	b9 32 01 00 00       	mov    $0x132,%ecx
  402212:	ba 07 00 00 00       	mov    $0x7,%edx
  402217:	be 00 00 10 00       	mov    $0x100000,%esi
  40221c:	bf 00 60 58 55       	mov    $0x55586000,%edi
  402221:	e8 da ea ff ff       	callq  400d00 <mmap@plt>
  402226:	48 89 c3             	mov    %rax,%rbx
  402229:	48 3d 00 60 58 55    	cmp    $0x55586000,%rax
  40222f:	74 37                	je     402268 <stable_launch+0x6f>
  402231:	be 00 00 10 00       	mov    $0x100000,%esi
  402236:	48 89 c7             	mov    %rax,%rdi
  402239:	e8 b2 eb ff ff       	callq  400df0 <munmap@plt>
  40223e:	b9 00 60 58 55       	mov    $0x55586000,%ecx
  402243:	ba a8 37 40 00       	mov    $0x4037a8,%edx
  402248:	be 01 00 00 00       	mov    $0x1,%esi
  40224d:	48 8b 3d 8c 32 20 00 	mov    0x20328c(%rip),%rdi        # 6054e0 <stderr@@GLIBC_2.2.5>
  402254:	b8 00 00 00 00       	mov    $0x0,%eax
  402259:	e8 12 ec ff ff       	callq  400e70 <__fprintf_chk@plt>
  40225e:	bf 01 00 00 00       	mov    $0x1,%edi
  402263:	e8 e8 eb ff ff       	callq  400e50 <exit@plt>
  402268:	48 8d 90 f8 ff 0f 00 	lea    0xffff8(%rax),%rdx
  40226f:	48 89 15 da 3e 20 00 	mov    %rdx,0x203eda(%rip)        # 606150 <stack_top>
  402276:	48 89 e0             	mov    %rsp,%rax
  402279:	48 89 d4             	mov    %rdx,%rsp
  40227c:	48 89 c2             	mov    %rax,%rdx
  40227f:	48 89 15 7a 32 20 00 	mov    %rdx,0x20327a(%rip)        # 605500 <global_save_stack>
  402286:	48 8b 3d 7b 32 20 00 	mov    0x20327b(%rip),%rdi        # 605508 <global_offset>
  40228d:	e8 ba fe ff ff       	callq  40214c <launch>
  402292:	48 8b 05 67 32 20 00 	mov    0x203267(%rip),%rax        # 605500 <global_save_stack>
  402299:	48 89 c4             	mov    %rax,%rsp
  40229c:	be 00 00 10 00       	mov    $0x100000,%esi
  4022a1:	48 89 df             	mov    %rbx,%rdi
  4022a4:	e8 47 eb ff ff       	callq  400df0 <munmap@plt>
  4022a9:	5b                   	pop    %rbx
  4022aa:	c3                   	retq   

00000000004022ab <rio_readinitb>:
  4022ab:	89 37                	mov    %esi,(%rdi)
  4022ad:	c7 47 04 00 00 00 00 	movl   $0x0,0x4(%rdi)
  4022b4:	48 8d 47 10          	lea    0x10(%rdi),%rax
  4022b8:	48 89 47 08          	mov    %rax,0x8(%rdi)
  4022bc:	c3                   	retq   

00000000004022bd <sigalrm_handler>:
  4022bd:	48 83 ec 08          	sub    $0x8,%rsp
  4022c1:	b9 00 00 00 00       	mov    $0x0,%ecx
  4022c6:	ba e0 37 40 00       	mov    $0x4037e0,%edx
  4022cb:	be 01 00 00 00       	mov    $0x1,%esi
  4022d0:	48 8b 3d 09 32 20 00 	mov    0x203209(%rip),%rdi        # 6054e0 <stderr@@GLIBC_2.2.5>
  4022d7:	b8 00 00 00 00       	mov    $0x0,%eax
  4022dc:	e8 8f eb ff ff       	callq  400e70 <__fprintf_chk@plt>
  4022e1:	bf 01 00 00 00       	mov    $0x1,%edi
  4022e6:	e8 65 eb ff ff       	callq  400e50 <exit@plt>

00000000004022eb <rio_writen>:
  4022eb:	41 55                	push   %r13
  4022ed:	41 54                	push   %r12
  4022ef:	55                   	push   %rbp
  4022f0:	53                   	push   %rbx
  4022f1:	48 83 ec 08          	sub    $0x8,%rsp
  4022f5:	41 89 fc             	mov    %edi,%r12d
  4022f8:	48 89 f5             	mov    %rsi,%rbp
  4022fb:	49 89 d5             	mov    %rdx,%r13
  4022fe:	48 89 d3             	mov    %rdx,%rbx
  402301:	eb 28                	jmp    40232b <rio_writen+0x40>
  402303:	48 89 da             	mov    %rbx,%rdx
  402306:	48 89 ee             	mov    %rbp,%rsi
  402309:	44 89 e7             	mov    %r12d,%edi
  40230c:	e8 cf e9 ff ff       	callq  400ce0 <write@plt>
  402311:	48 85 c0             	test   %rax,%rax
  402314:	7f 0f                	jg     402325 <rio_writen+0x3a>
  402316:	e8 75 e9 ff ff       	callq  400c90 <__errno_location@plt>
  40231b:	83 38 04             	cmpl   $0x4,(%rax)
  40231e:	75 15                	jne    402335 <rio_writen+0x4a>
  402320:	b8 00 00 00 00       	mov    $0x0,%eax
  402325:	48 29 c3             	sub    %rax,%rbx
  402328:	48 01 c5             	add    %rax,%rbp
  40232b:	48 85 db             	test   %rbx,%rbx
  40232e:	75 d3                	jne    402303 <rio_writen+0x18>
  402330:	4c 89 e8             	mov    %r13,%rax
  402333:	eb 07                	jmp    40233c <rio_writen+0x51>
  402335:	48 c7 c0 ff ff ff ff 	mov    $0xffffffffffffffff,%rax
  40233c:	48 83 c4 08          	add    $0x8,%rsp
  402340:	5b                   	pop    %rbx
  402341:	5d                   	pop    %rbp
  402342:	41 5c                	pop    %r12
  402344:	41 5d                	pop    %r13
  402346:	c3                   	retq   

0000000000402347 <rio_read>:
  402347:	41 55                	push   %r13
  402349:	41 54                	push   %r12
  40234b:	55                   	push   %rbp
  40234c:	53                   	push   %rbx
  40234d:	48 83 ec 08          	sub    $0x8,%rsp
  402351:	48 89 fb             	mov    %rdi,%rbx
  402354:	49 89 f5             	mov    %rsi,%r13
  402357:	49 89 d4             	mov    %rdx,%r12
  40235a:	eb 2e                	jmp    40238a <rio_read+0x43>
  40235c:	48 8d 6b 10          	lea    0x10(%rbx),%rbp
  402360:	8b 3b                	mov    (%rbx),%edi
  402362:	ba 00 20 00 00       	mov    $0x2000,%edx
  402367:	48 89 ee             	mov    %rbp,%rsi
  40236a:	e8 d1 e9 ff ff       	callq  400d40 <read@plt>
  40236f:	89 43 04             	mov    %eax,0x4(%rbx)
  402372:	85 c0                	test   %eax,%eax
  402374:	79 0c                	jns    402382 <rio_read+0x3b>
  402376:	e8 15 e9 ff ff       	callq  400c90 <__errno_location@plt>
  40237b:	83 38 04             	cmpl   $0x4,(%rax)
  40237e:	74 0a                	je     40238a <rio_read+0x43>
  402380:	eb 37                	jmp    4023b9 <rio_read+0x72>
  402382:	85 c0                	test   %eax,%eax
  402384:	74 3c                	je     4023c2 <rio_read+0x7b>
  402386:	48 89 6b 08          	mov    %rbp,0x8(%rbx)
  40238a:	8b 6b 04             	mov    0x4(%rbx),%ebp
  40238d:	85 ed                	test   %ebp,%ebp
  40238f:	7e cb                	jle    40235c <rio_read+0x15>
  402391:	89 e8                	mov    %ebp,%eax
  402393:	49 39 c4             	cmp    %rax,%r12
  402396:	77 03                	ja     40239b <rio_read+0x54>
  402398:	44 89 e5             	mov    %r12d,%ebp
  40239b:	4c 63 e5             	movslq %ebp,%r12
  40239e:	48 8b 73 08          	mov    0x8(%rbx),%rsi
  4023a2:	4c 89 e2             	mov    %r12,%rdx
  4023a5:	4c 89 ef             	mov    %r13,%rdi
  4023a8:	e8 f3 e9 ff ff       	callq  400da0 <memcpy@plt>
  4023ad:	4c 01 63 08          	add    %r12,0x8(%rbx)
  4023b1:	29 6b 04             	sub    %ebp,0x4(%rbx)
  4023b4:	4c 89 e0             	mov    %r12,%rax
  4023b7:	eb 0e                	jmp    4023c7 <rio_read+0x80>
  4023b9:	48 c7 c0 ff ff ff ff 	mov    $0xffffffffffffffff,%rax
  4023c0:	eb 05                	jmp    4023c7 <rio_read+0x80>
  4023c2:	b8 00 00 00 00       	mov    $0x0,%eax
  4023c7:	48 83 c4 08          	add    $0x8,%rsp
  4023cb:	5b                   	pop    %rbx
  4023cc:	5d                   	pop    %rbp
  4023cd:	41 5c                	pop    %r12
  4023cf:	41 5d                	pop    %r13
  4023d1:	c3                   	retq   

00000000004023d2 <rio_readlineb>:
  4023d2:	41 55                	push   %r13
  4023d4:	41 54                	push   %r12
  4023d6:	55                   	push   %rbp
  4023d7:	53                   	push   %rbx
  4023d8:	48 83 ec 18          	sub    $0x18,%rsp
  4023dc:	49 89 fd             	mov    %rdi,%r13
  4023df:	48 89 f5             	mov    %rsi,%rbp
  4023e2:	49 89 d4             	mov    %rdx,%r12
  4023e5:	64 48 8b 04 25 28 00 	mov    %fs:0x28,%rax
  4023ec:	00 00 
  4023ee:	48 89 44 24 08       	mov    %rax,0x8(%rsp)
  4023f3:	31 c0                	xor    %eax,%eax
  4023f5:	bb 01 00 00 00       	mov    $0x1,%ebx
  4023fa:	eb 3f                	jmp    40243b <rio_readlineb+0x69>
  4023fc:	ba 01 00 00 00       	mov    $0x1,%edx
  402401:	48 8d 74 24 07       	lea    0x7(%rsp),%rsi
  402406:	4c 89 ef             	mov    %r13,%rdi
  402409:	e8 39 ff ff ff       	callq  402347 <rio_read>
  40240e:	83 f8 01             	cmp    $0x1,%eax
  402411:	75 15                	jne    402428 <rio_readlineb+0x56>
  402413:	48 8d 45 01          	lea    0x1(%rbp),%rax
  402417:	0f b6 54 24 07       	movzbl 0x7(%rsp),%edx
  40241c:	88 55 00             	mov    %dl,0x0(%rbp)
  40241f:	80 7c 24 07 0a       	cmpb   $0xa,0x7(%rsp)
  402424:	75 0e                	jne    402434 <rio_readlineb+0x62>
  402426:	eb 1a                	jmp    402442 <rio_readlineb+0x70>
  402428:	85 c0                	test   %eax,%eax
  40242a:	75 22                	jne    40244e <rio_readlineb+0x7c>
  40242c:	48 83 fb 01          	cmp    $0x1,%rbx
  402430:	75 13                	jne    402445 <rio_readlineb+0x73>
  402432:	eb 23                	jmp    402457 <rio_readlineb+0x85>
  402434:	48 83 c3 01          	add    $0x1,%rbx
  402438:	48 89 c5             	mov    %rax,%rbp
  40243b:	4c 39 e3             	cmp    %r12,%rbx
  40243e:	72 bc                	jb     4023fc <rio_readlineb+0x2a>
  402440:	eb 03                	jmp    402445 <rio_readlineb+0x73>
  402442:	48 89 c5             	mov    %rax,%rbp
  402445:	c6 45 00 00          	movb   $0x0,0x0(%rbp)
  402449:	48 89 d8             	mov    %rbx,%rax
  40244c:	eb 0e                	jmp    40245c <rio_readlineb+0x8a>
  40244e:	48 c7 c0 ff ff ff ff 	mov    $0xffffffffffffffff,%rax
  402455:	eb 05                	jmp    40245c <rio_readlineb+0x8a>
  402457:	b8 00 00 00 00       	mov    $0x0,%eax
  40245c:	48 8b 4c 24 08       	mov    0x8(%rsp),%rcx
  402461:	64 48 33 0c 25 28 00 	xor    %fs:0x28,%rcx
  402468:	00 00 
  40246a:	74 05                	je     402471 <rio_readlineb+0x9f>
  40246c:	e8 7f e8 ff ff       	callq  400cf0 <__stack_chk_fail@plt>
  402471:	48 83 c4 18          	add    $0x18,%rsp
  402475:	5b                   	pop    %rbx
  402476:	5d                   	pop    %rbp
  402477:	41 5c                	pop    %r12
  402479:	41 5d                	pop    %r13
  40247b:	c3                   	retq   

000000000040247c <urlencode>:
  40247c:	41 54                	push   %r12
  40247e:	55                   	push   %rbp
  40247f:	53                   	push   %rbx
  402480:	48 83 ec 10          	sub    $0x10,%rsp
  402484:	48 89 fb             	mov    %rdi,%rbx
  402487:	48 89 f5             	mov    %rsi,%rbp
  40248a:	64 48 8b 04 25 28 00 	mov    %fs:0x28,%rax
  402491:	00 00 
  402493:	48 89 44 24 08       	mov    %rax,0x8(%rsp)
  402498:	31 c0                	xor    %eax,%eax
  40249a:	48 c7 c1 ff ff ff ff 	mov    $0xffffffffffffffff,%rcx
  4024a1:	f2 ae                	repnz scas %es:(%rdi),%al
  4024a3:	48 f7 d1             	not    %rcx
  4024a6:	8d 41 ff             	lea    -0x1(%rcx),%eax
  4024a9:	e9 aa 00 00 00       	jmpq   402558 <urlencode+0xdc>
  4024ae:	44 0f b6 03          	movzbl (%rbx),%r8d
  4024b2:	41 80 f8 2a          	cmp    $0x2a,%r8b
  4024b6:	0f 94 c2             	sete   %dl
  4024b9:	41 80 f8 2d          	cmp    $0x2d,%r8b
  4024bd:	0f 94 c0             	sete   %al
  4024c0:	08 c2                	or     %al,%dl
  4024c2:	75 24                	jne    4024e8 <urlencode+0x6c>
  4024c4:	41 80 f8 2e          	cmp    $0x2e,%r8b
  4024c8:	74 1e                	je     4024e8 <urlencode+0x6c>
  4024ca:	41 80 f8 5f          	cmp    $0x5f,%r8b
  4024ce:	74 18                	je     4024e8 <urlencode+0x6c>
  4024d0:	41 8d 40 d0          	lea    -0x30(%r8),%eax
  4024d4:	3c 09                	cmp    $0x9,%al
  4024d6:	76 10                	jbe    4024e8 <urlencode+0x6c>
  4024d8:	41 8d 40 bf          	lea    -0x41(%r8),%eax
  4024dc:	3c 19                	cmp    $0x19,%al
  4024de:	76 08                	jbe    4024e8 <urlencode+0x6c>
  4024e0:	41 8d 40 9f          	lea    -0x61(%r8),%eax
  4024e4:	3c 19                	cmp    $0x19,%al
  4024e6:	77 0a                	ja     4024f2 <urlencode+0x76>
  4024e8:	44 88 45 00          	mov    %r8b,0x0(%rbp)
  4024ec:	48 8d 6d 01          	lea    0x1(%rbp),%rbp
  4024f0:	eb 5f                	jmp    402551 <urlencode+0xd5>
  4024f2:	41 80 f8 20          	cmp    $0x20,%r8b
  4024f6:	75 0a                	jne    402502 <urlencode+0x86>
  4024f8:	c6 45 00 2b          	movb   $0x2b,0x0(%rbp)
  4024fc:	48 8d 6d 01          	lea    0x1(%rbp),%rbp
  402500:	eb 4f                	jmp    402551 <urlencode+0xd5>
  402502:	41 8d 40 e0          	lea    -0x20(%r8),%eax
  402506:	3c 5f                	cmp    $0x5f,%al
  402508:	0f 96 c2             	setbe  %dl
  40250b:	41 80 f8 09          	cmp    $0x9,%r8b
  40250f:	0f 94 c0             	sete   %al
  402512:	08 c2                	or     %al,%dl
  402514:	74 50                	je     402566 <urlencode+0xea>
  402516:	45 0f b6 c0          	movzbl %r8b,%r8d
  40251a:	b9 78 38 40 00       	mov    $0x403878,%ecx
  40251f:	ba 08 00 00 00       	mov    $0x8,%edx
  402524:	be 01 00 00 00       	mov    $0x1,%esi
  402529:	48 89 e7             	mov    %rsp,%rdi
  40252c:	b8 00 00 00 00       	mov    $0x0,%eax
  402531:	e8 4a e9 ff ff       	callq  400e80 <__sprintf_chk@plt>
  402536:	0f b6 04 24          	movzbl (%rsp),%eax
  40253a:	88 45 00             	mov    %al,0x0(%rbp)
  40253d:	0f b6 44 24 01       	movzbl 0x1(%rsp),%eax
  402542:	88 45 01             	mov    %al,0x1(%rbp)
  402545:	0f b6 44 24 02       	movzbl 0x2(%rsp),%eax
  40254a:	88 45 02             	mov    %al,0x2(%rbp)
  40254d:	48 8d 6d 03          	lea    0x3(%rbp),%rbp
  402551:	48 83 c3 01          	add    $0x1,%rbx
  402555:	44 89 e0             	mov    %r12d,%eax
  402558:	44 8d 60 ff          	lea    -0x1(%rax),%r12d
  40255c:	85 c0                	test   %eax,%eax
  40255e:	0f 85 4a ff ff ff    	jne    4024ae <urlencode+0x32>
  402564:	eb 05                	jmp    40256b <urlencode+0xef>
  402566:	b8 ff ff ff ff       	mov    $0xffffffff,%eax
  40256b:	48 8b 74 24 08       	mov    0x8(%rsp),%rsi
  402570:	64 48 33 34 25 28 00 	xor    %fs:0x28,%rsi
  402577:	00 00 
  402579:	74 05                	je     402580 <urlencode+0x104>
  40257b:	e8 70 e7 ff ff       	callq  400cf0 <__stack_chk_fail@plt>
  402580:	48 83 c4 10          	add    $0x10,%rsp
  402584:	5b                   	pop    %rbx
  402585:	5d                   	pop    %rbp
  402586:	41 5c                	pop    %r12
  402588:	c3                   	retq   

0000000000402589 <submitr>:
  402589:	41 57                	push   %r15
  40258b:	41 56                	push   %r14
  40258d:	41 55                	push   %r13
  40258f:	41 54                	push   %r12
  402591:	55                   	push   %rbp
  402592:	53                   	push   %rbx
  402593:	48 81 ec 58 a0 00 00 	sub    $0xa058,%rsp
  40259a:	49 89 fc             	mov    %rdi,%r12
  40259d:	89 74 24 04          	mov    %esi,0x4(%rsp)
  4025a1:	49 89 d7             	mov    %rdx,%r15
  4025a4:	49 89 ce             	mov    %rcx,%r14
  4025a7:	4c 89 44 24 08       	mov    %r8,0x8(%rsp)
  4025ac:	4d 89 cd             	mov    %r9,%r13
  4025af:	48 8b 9c 24 90 a0 00 	mov    0xa090(%rsp),%rbx
  4025b6:	00 
  4025b7:	64 48 8b 04 25 28 00 	mov    %fs:0x28,%rax
  4025be:	00 00 
  4025c0:	48 89 84 24 48 a0 00 	mov    %rax,0xa048(%rsp)
  4025c7:	00 
  4025c8:	31 c0                	xor    %eax,%eax
  4025ca:	c7 44 24 1c 00 00 00 	movl   $0x0,0x1c(%rsp)
  4025d1:	00 
  4025d2:	ba 00 00 00 00       	mov    $0x0,%edx
  4025d7:	be 01 00 00 00       	mov    $0x1,%esi
  4025dc:	bf 02 00 00 00       	mov    $0x2,%edi
  4025e1:	e8 aa e8 ff ff       	callq  400e90 <socket@plt>
  4025e6:	85 c0                	test   %eax,%eax
  4025e8:	79 4e                	jns    402638 <submitr+0xaf>
  4025ea:	48 b8 45 72 72 6f 72 	movabs $0x43203a726f727245,%rax
  4025f1:	3a 20 43 
  4025f4:	48 89 03             	mov    %rax,(%rbx)
  4025f7:	48 b8 6c 69 65 6e 74 	movabs $0x6e7520746e65696c,%rax
  4025fe:	20 75 6e 
  402601:	48 89 43 08          	mov    %rax,0x8(%rbx)
  402605:	48 b8 61 62 6c 65 20 	movabs $0x206f7420656c6261,%rax
  40260c:	74 6f 20 
  40260f:	48 89 43 10          	mov    %rax,0x10(%rbx)
  402613:	48 b8 63 72 65 61 74 	movabs $0x7320657461657263,%rax
  40261a:	65 20 73 
  40261d:	48 89 43 18          	mov    %rax,0x18(%rbx)
  402621:	c7 43 20 6f 63 6b 65 	movl   $0x656b636f,0x20(%rbx)
  402628:	66 c7 43 24 74 00    	movw   $0x74,0x24(%rbx)
  40262e:	b8 ff ff ff ff       	mov    $0xffffffff,%eax
  402633:	e9 97 06 00 00       	jmpq   402ccf <submitr+0x746>
  402638:	89 c5                	mov    %eax,%ebp
  40263a:	4c 89 e7             	mov    %r12,%rdi
  40263d:	e8 2e e7 ff ff       	callq  400d70 <gethostbyname@plt>
  402642:	48 85 c0             	test   %rax,%rax
  402645:	75 67                	jne    4026ae <submitr+0x125>
  402647:	48 b8 45 72 72 6f 72 	movabs $0x44203a726f727245,%rax
  40264e:	3a 20 44 
  402651:	48 89 03             	mov    %rax,(%rbx)
  402654:	48 b8 4e 53 20 69 73 	movabs $0x6e7520736920534e,%rax
  40265b:	20 75 6e 
  40265e:	48 89 43 08          	mov    %rax,0x8(%rbx)
  402662:	48 b8 61 62 6c 65 20 	movabs $0x206f7420656c6261,%rax
  402669:	74 6f 20 
  40266c:	48 89 43 10          	mov    %rax,0x10(%rbx)
  402670:	48 b8 72 65 73 6f 6c 	movabs $0x2065766c6f736572,%rax
  402677:	76 65 20 
  40267a:	48 89 43 18          	mov    %rax,0x18(%rbx)
  40267e:	48 b8 73 65 72 76 65 	movabs $0x6120726576726573,%rax
  402685:	72 20 61 
  402688:	48 89 43 20          	mov    %rax,0x20(%rbx)
  40268c:	c7 43 28 64 64 72 65 	movl   $0x65726464,0x28(%rbx)
  402693:	66 c7 43 2c 73 73    	movw   $0x7373,0x2c(%rbx)
  402699:	c6 43 2e 00          	movb   $0x0,0x2e(%rbx)
  40269d:	89 ef                	mov    %ebp,%edi
  40269f:	e8 8c e6 ff ff       	callq  400d30 <close@plt>
  4026a4:	b8 ff ff ff ff       	mov    $0xffffffff,%eax
  4026a9:	e9 21 06 00 00       	jmpq   402ccf <submitr+0x746>
  4026ae:	48 c7 44 24 20 00 00 	movq   $0x0,0x20(%rsp)
  4026b5:	00 00 
  4026b7:	48 c7 44 24 28 00 00 	movq   $0x0,0x28(%rsp)
  4026be:	00 00 
  4026c0:	66 c7 44 24 20 02 00 	movw   $0x2,0x20(%rsp)
  4026c7:	48 63 50 14          	movslq 0x14(%rax),%rdx
  4026cb:	48 8b 40 18          	mov    0x18(%rax),%rax
  4026cf:	48 8b 30             	mov    (%rax),%rsi
  4026d2:	48 8d 7c 24 24       	lea    0x24(%rsp),%rdi
  4026d7:	b9 0c 00 00 00       	mov    $0xc,%ecx
  4026dc:	e8 9f e6 ff ff       	callq  400d80 <__memmove_chk@plt>
  4026e1:	0f b7 44 24 04       	movzwl 0x4(%rsp),%eax
  4026e6:	66 c1 c8 08          	ror    $0x8,%ax
  4026ea:	66 89 44 24 22       	mov    %ax,0x22(%rsp)
  4026ef:	ba 10 00 00 00       	mov    $0x10,%edx
  4026f4:	48 8d 74 24 20       	lea    0x20(%rsp),%rsi
  4026f9:	89 ef                	mov    %ebp,%edi
  4026fb:	e8 60 e7 ff ff       	callq  400e60 <connect@plt>
  402700:	85 c0                	test   %eax,%eax
  402702:	79 59                	jns    40275d <submitr+0x1d4>
  402704:	48 b8 45 72 72 6f 72 	movabs $0x55203a726f727245,%rax
  40270b:	3a 20 55 
  40270e:	48 89 03             	mov    %rax,(%rbx)
  402711:	48 b8 6e 61 62 6c 65 	movabs $0x6f7420656c62616e,%rax
  402718:	20 74 6f 
  40271b:	48 89 43 08          	mov    %rax,0x8(%rbx)
  40271f:	48 b8 20 63 6f 6e 6e 	movabs $0x7463656e6e6f6320,%rax
  402726:	65 63 74 
  402729:	48 89 43 10          	mov    %rax,0x10(%rbx)
  40272d:	48 b8 20 74 6f 20 74 	movabs $0x20656874206f7420,%rax
  402734:	68 65 20 
  402737:	48 89 43 18          	mov    %rax,0x18(%rbx)
  40273b:	c7 43 20 73 65 72 76 	movl   $0x76726573,0x20(%rbx)
  402742:	66 c7 43 24 65 72    	movw   $0x7265,0x24(%rbx)
  402748:	c6 43 26 00          	movb   $0x0,0x26(%rbx)
  40274c:	89 ef                	mov    %ebp,%edi
  40274e:	e8 dd e5 ff ff       	callq  400d30 <close@plt>
  402753:	b8 ff ff ff ff       	mov    $0xffffffff,%eax
  402758:	e9 72 05 00 00       	jmpq   402ccf <submitr+0x746>
  40275d:	48 c7 c6 ff ff ff ff 	mov    $0xffffffffffffffff,%rsi
  402764:	b8 00 00 00 00       	mov    $0x0,%eax
  402769:	48 89 f1             	mov    %rsi,%rcx
  40276c:	4c 89 ef             	mov    %r13,%rdi
  40276f:	f2 ae                	repnz scas %es:(%rdi),%al
  402771:	48 f7 d1             	not    %rcx
  402774:	48 89 ca             	mov    %rcx,%rdx
  402777:	48 89 f1             	mov    %rsi,%rcx
  40277a:	4c 89 ff             	mov    %r15,%rdi
  40277d:	f2 ae                	repnz scas %es:(%rdi),%al
  40277f:	48 f7 d1             	not    %rcx
  402782:	49 89 c8             	mov    %rcx,%r8
  402785:	48 89 f1             	mov    %rsi,%rcx
  402788:	4c 89 f7             	mov    %r14,%rdi
  40278b:	f2 ae                	repnz scas %es:(%rdi),%al
  40278d:	48 f7 d1             	not    %rcx
  402790:	4d 8d 44 08 fe       	lea    -0x2(%r8,%rcx,1),%r8
  402795:	48 89 f1             	mov    %rsi,%rcx
  402798:	48 8b 7c 24 08       	mov    0x8(%rsp),%rdi
  40279d:	f2 ae                	repnz scas %es:(%rdi),%al
  40279f:	48 89 c8             	mov    %rcx,%rax
  4027a2:	48 f7 d0             	not    %rax
  4027a5:	49 8d 4c 00 ff       	lea    -0x1(%r8,%rax,1),%rcx
  4027aa:	48 8d 44 52 fd       	lea    -0x3(%rdx,%rdx,2),%rax
  4027af:	48 8d 84 01 80 00 00 	lea    0x80(%rcx,%rax,1),%rax
  4027b6:	00 
  4027b7:	48 3d 00 20 00 00    	cmp    $0x2000,%rax
  4027bd:	76 72                	jbe    402831 <submitr+0x2a8>
  4027bf:	48 b8 45 72 72 6f 72 	movabs $0x52203a726f727245,%rax
  4027c6:	3a 20 52 
  4027c9:	48 89 03             	mov    %rax,(%rbx)
  4027cc:	48 b8 65 73 75 6c 74 	movabs $0x747320746c757365,%rax
  4027d3:	20 73 74 
  4027d6:	48 89 43 08          	mov    %rax,0x8(%rbx)
  4027da:	48 b8 72 69 6e 67 20 	movabs $0x6f6f7420676e6972,%rax
  4027e1:	74 6f 6f 
  4027e4:	48 89 43 10          	mov    %rax,0x10(%rbx)
  4027e8:	48 b8 20 6c 61 72 67 	movabs $0x202e656772616c20,%rax
  4027ef:	65 2e 20 
  4027f2:	48 89 43 18          	mov    %rax,0x18(%rbx)
  4027f6:	48 b8 49 6e 63 72 65 	movabs $0x6573616572636e49,%rax
  4027fd:	61 73 65 
  402800:	48 89 43 20          	mov    %rax,0x20(%rbx)
  402804:	48 b8 20 53 55 42 4d 	movabs $0x5254494d42555320,%rax
  40280b:	49 54 52 
  40280e:	48 89 43 28          	mov    %rax,0x28(%rbx)
  402812:	48 b8 5f 4d 41 58 42 	movabs $0x46554258414d5f,%rax
  402819:	55 46 00 
  40281c:	48 89 43 30          	mov    %rax,0x30(%rbx)
  402820:	89 ef                	mov    %ebp,%edi
  402822:	e8 09 e5 ff ff       	callq  400d30 <close@plt>
  402827:	b8 ff ff ff ff       	mov    $0xffffffff,%eax
  40282c:	e9 9e 04 00 00       	jmpq   402ccf <submitr+0x746>
  402831:	48 8d b4 24 40 40 00 	lea    0x4040(%rsp),%rsi
  402838:	00 
  402839:	b9 00 04 00 00       	mov    $0x400,%ecx
  40283e:	b8 00 00 00 00       	mov    $0x0,%eax
  402843:	48 89 f7             	mov    %rsi,%rdi
  402846:	f3 48 ab             	rep stos %rax,%es:(%rdi)
  402849:	4c 89 ef             	mov    %r13,%rdi
  40284c:	e8 2b fc ff ff       	callq  40247c <urlencode>
  402851:	85 c0                	test   %eax,%eax
  402853:	0f 89 8a 00 00 00    	jns    4028e3 <submitr+0x35a>
  402859:	48 b8 45 72 72 6f 72 	movabs $0x52203a726f727245,%rax
  402860:	3a 20 52 
  402863:	48 89 03             	mov    %rax,(%rbx)
  402866:	48 b8 65 73 75 6c 74 	movabs $0x747320746c757365,%rax
  40286d:	20 73 74 
  402870:	48 89 43 08          	mov    %rax,0x8(%rbx)
  402874:	48 b8 72 69 6e 67 20 	movabs $0x6e6f6320676e6972,%rax
  40287b:	63 6f 6e 
  40287e:	48 89 43 10          	mov    %rax,0x10(%rbx)
  402882:	48 b8 74 61 69 6e 73 	movabs $0x6e6120736e696174,%rax
  402889:	20 61 6e 
  40288c:	48 89 43 18          	mov    %rax,0x18(%rbx)
  402890:	48 b8 20 69 6c 6c 65 	movabs $0x6c6167656c6c6920,%rax
  402897:	67 61 6c 
  40289a:	48 89 43 20          	mov    %rax,0x20(%rbx)
  40289e:	48 b8 20 6f 72 20 75 	movabs $0x72706e7520726f20,%rax
  4028a5:	6e 70 72 
  4028a8:	48 89 43 28          	mov    %rax,0x28(%rbx)
  4028ac:	48 b8 69 6e 74 61 62 	movabs $0x20656c6261746e69,%rax
  4028b3:	6c 65 20 
  4028b6:	48 89 43 30          	mov    %rax,0x30(%rbx)
  4028ba:	48 b8 63 68 61 72 61 	movabs $0x6574636172616863,%rax
  4028c1:	63 74 65 
  4028c4:	48 89 43 38          	mov    %rax,0x38(%rbx)
  4028c8:	66 c7 43 40 72 2e    	movw   $0x2e72,0x40(%rbx)
  4028ce:	c6 43 42 00          	movb   $0x0,0x42(%rbx)
  4028d2:	89 ef                	mov    %ebp,%edi
  4028d4:	e8 57 e4 ff ff       	callq  400d30 <close@plt>
  4028d9:	b8 ff ff ff ff       	mov    $0xffffffff,%eax
  4028de:	e9 ec 03 00 00       	jmpq   402ccf <submitr+0x746>
  4028e3:	4c 8d ac 24 40 20 00 	lea    0x2040(%rsp),%r13
  4028ea:	00 
  4028eb:	41 54                	push   %r12
  4028ed:	48 8d 84 24 48 40 00 	lea    0x4048(%rsp),%rax
  4028f4:	00 
  4028f5:	50                   	push   %rax
  4028f6:	4d 89 f9             	mov    %r15,%r9
  4028f9:	4d 89 f0             	mov    %r14,%r8
  4028fc:	b9 08 38 40 00       	mov    $0x403808,%ecx
  402901:	ba 00 20 00 00       	mov    $0x2000,%edx
  402906:	be 01 00 00 00       	mov    $0x1,%esi
  40290b:	4c 89 ef             	mov    %r13,%rdi
  40290e:	b8 00 00 00 00       	mov    $0x0,%eax
  402913:	e8 68 e5 ff ff       	callq  400e80 <__sprintf_chk@plt>
  402918:	b8 00 00 00 00       	mov    $0x0,%eax
  40291d:	48 c7 c1 ff ff ff ff 	mov    $0xffffffffffffffff,%rcx
  402924:	4c 89 ef             	mov    %r13,%rdi
  402927:	f2 ae                	repnz scas %es:(%rdi),%al
  402929:	48 f7 d1             	not    %rcx
  40292c:	48 8d 51 ff          	lea    -0x1(%rcx),%rdx
  402930:	4c 89 ee             	mov    %r13,%rsi
  402933:	89 ef                	mov    %ebp,%edi
  402935:	e8 b1 f9 ff ff       	callq  4022eb <rio_writen>
  40293a:	48 83 c4 10          	add    $0x10,%rsp
  40293e:	48 85 c0             	test   %rax,%rax
  402941:	79 6e                	jns    4029b1 <submitr+0x428>
  402943:	48 b8 45 72 72 6f 72 	movabs $0x43203a726f727245,%rax
  40294a:	3a 20 43 
  40294d:	48 89 03             	mov    %rax,(%rbx)
  402950:	48 b8 6c 69 65 6e 74 	movabs $0x6e7520746e65696c,%rax
  402957:	20 75 6e 
  40295a:	48 89 43 08          	mov    %rax,0x8(%rbx)
  40295e:	48 b8 61 62 6c 65 20 	movabs $0x206f7420656c6261,%rax
  402965:	74 6f 20 
  402968:	48 89 43 10          	mov    %rax,0x10(%rbx)
  40296c:	48 b8 77 72 69 74 65 	movabs $0x6f74206574697277,%rax
  402973:	20 74 6f 
  402976:	48 89 43 18          	mov    %rax,0x18(%rbx)
  40297a:	48 b8 20 74 68 65 20 	movabs $0x7365722065687420,%rax
  402981:	72 65 73 
  402984:	48 89 43 20          	mov    %rax,0x20(%rbx)
  402988:	48 b8 75 6c 74 20 73 	movabs $0x7672657320746c75,%rax
  40298f:	65 72 76 
  402992:	48 89 43 28          	mov    %rax,0x28(%rbx)
  402996:	66 c7 43 30 65 72    	movw   $0x7265,0x30(%rbx)
  40299c:	c6 43 32 00          	movb   $0x0,0x32(%rbx)
  4029a0:	89 ef                	mov    %ebp,%edi
  4029a2:	e8 89 e3 ff ff       	callq  400d30 <close@plt>
  4029a7:	b8 ff ff ff ff       	mov    $0xffffffff,%eax
  4029ac:	e9 1e 03 00 00       	jmpq   402ccf <submitr+0x746>
  4029b1:	89 ee                	mov    %ebp,%esi
  4029b3:	48 8d 7c 24 30       	lea    0x30(%rsp),%rdi
  4029b8:	e8 ee f8 ff ff       	callq  4022ab <rio_readinitb>
  4029bd:	ba 00 20 00 00       	mov    $0x2000,%edx
  4029c2:	48 8d b4 24 40 20 00 	lea    0x2040(%rsp),%rsi
  4029c9:	00 
  4029ca:	48 8d 7c 24 30       	lea    0x30(%rsp),%rdi
  4029cf:	e8 fe f9 ff ff       	callq  4023d2 <rio_readlineb>
  4029d4:	48 85 c0             	test   %rax,%rax
  4029d7:	7f 7d                	jg     402a56 <submitr+0x4cd>
  4029d9:	48 b8 45 72 72 6f 72 	movabs $0x43203a726f727245,%rax
  4029e0:	3a 20 43 
  4029e3:	48 89 03             	mov    %rax,(%rbx)
  4029e6:	48 b8 6c 69 65 6e 74 	movabs $0x6e7520746e65696c,%rax
  4029ed:	20 75 6e 
  4029f0:	48 89 43 08          	mov    %rax,0x8(%rbx)
  4029f4:	48 b8 61 62 6c 65 20 	movabs $0x206f7420656c6261,%rax
  4029fb:	74 6f 20 
  4029fe:	48 89 43 10          	mov    %rax,0x10(%rbx)
  402a02:	48 b8 72 65 61 64 20 	movabs $0x7269662064616572,%rax
  402a09:	66 69 72 
  402a0c:	48 89 43 18          	mov    %rax,0x18(%rbx)
  402a10:	48 b8 73 74 20 68 65 	movabs $0x6564616568207473,%rax
  402a17:	61 64 65 
  402a1a:	48 89 43 20          	mov    %rax,0x20(%rbx)
  402a1e:	48 b8 72 20 66 72 6f 	movabs $0x72206d6f72662072,%rax
  402a25:	6d 20 72 
  402a28:	48 89 43 28          	mov    %rax,0x28(%rbx)
  402a2c:	48 b8 65 73 75 6c 74 	movabs $0x657320746c757365,%rax
  402a33:	20 73 65 
  402a36:	48 89 43 30          	mov    %rax,0x30(%rbx)
  402a3a:	c7 43 38 72 76 65 72 	movl   $0x72657672,0x38(%rbx)
  402a41:	c6 43 3c 00          	movb   $0x0,0x3c(%rbx)
  402a45:	89 ef                	mov    %ebp,%edi
  402a47:	e8 e4 e2 ff ff       	callq  400d30 <close@plt>
  402a4c:	b8 ff ff ff ff       	mov    $0xffffffff,%eax
  402a51:	e9 79 02 00 00       	jmpq   402ccf <submitr+0x746>
  402a56:	4c 8d 84 24 40 80 00 	lea    0x8040(%rsp),%r8
  402a5d:	00 
  402a5e:	48 8d 4c 24 1c       	lea    0x1c(%rsp),%rcx
  402a63:	48 8d 94 24 40 60 00 	lea    0x6040(%rsp),%rdx
  402a6a:	00 
  402a6b:	be 7f 38 40 00       	mov    $0x40387f,%esi
  402a70:	48 8d bc 24 40 20 00 	lea    0x2040(%rsp),%rdi
  402a77:	00 
  402a78:	b8 00 00 00 00       	mov    $0x0,%eax
  402a7d:	e8 5e e3 ff ff       	callq  400de0 <__isoc99_sscanf@plt>
  402a82:	e9 95 00 00 00       	jmpq   402b1c <submitr+0x593>
  402a87:	ba 00 20 00 00       	mov    $0x2000,%edx
  402a8c:	48 8d b4 24 40 20 00 	lea    0x2040(%rsp),%rsi
  402a93:	00 
  402a94:	48 8d 7c 24 30       	lea    0x30(%rsp),%rdi
  402a99:	e8 34 f9 ff ff       	callq  4023d2 <rio_readlineb>
  402a9e:	48 85 c0             	test   %rax,%rax
  402aa1:	7f 79                	jg     402b1c <submitr+0x593>
  402aa3:	48 b8 45 72 72 6f 72 	movabs $0x43203a726f727245,%rax
  402aaa:	3a 20 43 
  402aad:	48 89 03             	mov    %rax,(%rbx)
  402ab0:	48 b8 6c 69 65 6e 74 	movabs $0x6e7520746e65696c,%rax
  402ab7:	20 75 6e 
  402aba:	48 89 43 08          	mov    %rax,0x8(%rbx)
  402abe:	48 b8 61 62 6c 65 20 	movabs $0x206f7420656c6261,%rax
  402ac5:	74 6f 20 
  402ac8:	48 89 43 10          	mov    %rax,0x10(%rbx)
  402acc:	48 b8 72 65 61 64 20 	movabs $0x6165682064616572,%rax
  402ad3:	68 65 61 
  402ad6:	48 89 43 18          	mov    %rax,0x18(%rbx)
  402ada:	48 b8 64 65 72 73 20 	movabs $0x6f72662073726564,%rax
  402ae1:	66 72 6f 
  402ae4:	48 89 43 20          	mov    %rax,0x20(%rbx)
  402ae8:	48 b8 6d 20 74 68 65 	movabs $0x657220656874206d,%rax
  402aef:	20 72 65 
  402af2:	48 89 43 28          	mov    %rax,0x28(%rbx)
  402af6:	48 b8 73 75 6c 74 20 	movabs $0x72657320746c7573,%rax
  402afd:	73 65 72 
  402b00:	48 89 43 30          	mov    %rax,0x30(%rbx)
  402b04:	c7 43 38 76 65 72 00 	movl   $0x726576,0x38(%rbx)
  402b0b:	89 ef                	mov    %ebp,%edi
  402b0d:	e8 1e e2 ff ff       	callq  400d30 <close@plt>
  402b12:	b8 ff ff ff ff       	mov    $0xffffffff,%eax
  402b17:	e9 b3 01 00 00       	jmpq   402ccf <submitr+0x746>
  402b1c:	0f b6 94 24 40 20 00 	movzbl 0x2040(%rsp),%edx
  402b23:	00 
  402b24:	b8 0d 00 00 00       	mov    $0xd,%eax
  402b29:	29 d0                	sub    %edx,%eax
  402b2b:	75 1b                	jne    402b48 <submitr+0x5bf>
  402b2d:	0f b6 94 24 41 20 00 	movzbl 0x2041(%rsp),%edx
  402b34:	00 
  402b35:	b8 0a 00 00 00       	mov    $0xa,%eax
  402b3a:	29 d0                	sub    %edx,%eax
  402b3c:	75 0a                	jne    402b48 <submitr+0x5bf>
  402b3e:	0f b6 84 24 42 20 00 	movzbl 0x2042(%rsp),%eax
  402b45:	00 
  402b46:	f7 d8                	neg    %eax
  402b48:	85 c0                	test   %eax,%eax
  402b4a:	0f 85 37 ff ff ff    	jne    402a87 <submitr+0x4fe>
  402b50:	ba 00 20 00 00       	mov    $0x2000,%edx
  402b55:	48 8d b4 24 40 20 00 	lea    0x2040(%rsp),%rsi
  402b5c:	00 
  402b5d:	48 8d 7c 24 30       	lea    0x30(%rsp),%rdi
  402b62:	e8 6b f8 ff ff       	callq  4023d2 <rio_readlineb>
  402b67:	48 85 c0             	test   %rax,%rax
  402b6a:	0f 8f 83 00 00 00    	jg     402bf3 <submitr+0x66a>
  402b70:	48 b8 45 72 72 6f 72 	movabs $0x43203a726f727245,%rax
  402b77:	3a 20 43 
  402b7a:	48 89 03             	mov    %rax,(%rbx)
  402b7d:	48 b8 6c 69 65 6e 74 	movabs $0x6e7520746e65696c,%rax
  402b84:	20 75 6e 
  402b87:	48 89 43 08          	mov    %rax,0x8(%rbx)
  402b8b:	48 b8 61 62 6c 65 20 	movabs $0x206f7420656c6261,%rax
  402b92:	74 6f 20 
  402b95:	48 89 43 10          	mov    %rax,0x10(%rbx)
  402b99:	48 b8 72 65 61 64 20 	movabs $0x6174732064616572,%rax
  402ba0:	73 74 61 
  402ba3:	48 89 43 18          	mov    %rax,0x18(%rbx)
  402ba7:	48 b8 74 75 73 20 6d 	movabs $0x7373656d20737574,%rax
  402bae:	65 73 73 
  402bb1:	48 89 43 20          	mov    %rax,0x20(%rbx)
  402bb5:	48 b8 61 67 65 20 66 	movabs $0x6d6f726620656761,%rax
  402bbc:	72 6f 6d 
  402bbf:	48 89 43 28          	mov    %rax,0x28(%rbx)
  402bc3:	48 b8 20 72 65 73 75 	movabs $0x20746c7573657220,%rax
  402bca:	6c 74 20 
  402bcd:	48 89 43 30          	mov    %rax,0x30(%rbx)
  402bd1:	c7 43 38 73 65 72 76 	movl   $0x76726573,0x38(%rbx)
  402bd8:	66 c7 43 3c 65 72    	movw   $0x7265,0x3c(%rbx)
  402bde:	c6 43 3e 00          	movb   $0x0,0x3e(%rbx)
  402be2:	89 ef                	mov    %ebp,%edi
  402be4:	e8 47 e1 ff ff       	callq  400d30 <close@plt>
  402be9:	b8 ff ff ff ff       	mov    $0xffffffff,%eax
  402bee:	e9 dc 00 00 00       	jmpq   402ccf <submitr+0x746>
  402bf3:	44 8b 44 24 1c       	mov    0x1c(%rsp),%r8d
  402bf8:	41 81 f8 c8 00 00 00 	cmp    $0xc8,%r8d
  402bff:	74 37                	je     402c38 <submitr+0x6af>
  402c01:	4c 8d 8c 24 40 80 00 	lea    0x8040(%rsp),%r9
  402c08:	00 
  402c09:	b9 48 38 40 00       	mov    $0x403848,%ecx
  402c0e:	48 c7 c2 ff ff ff ff 	mov    $0xffffffffffffffff,%rdx
  402c15:	be 01 00 00 00       	mov    $0x1,%esi
  402c1a:	48 89 df             	mov    %rbx,%rdi
  402c1d:	b8 00 00 00 00       	mov    $0x0,%eax
  402c22:	e8 59 e2 ff ff       	callq  400e80 <__sprintf_chk@plt>
  402c27:	89 ef                	mov    %ebp,%edi
  402c29:	e8 02 e1 ff ff       	callq  400d30 <close@plt>
  402c2e:	b8 ff ff ff ff       	mov    $0xffffffff,%eax
  402c33:	e9 97 00 00 00       	jmpq   402ccf <submitr+0x746>
  402c38:	48 8d b4 24 40 20 00 	lea    0x2040(%rsp),%rsi
  402c3f:	00 
  402c40:	48 89 df             	mov    %rbx,%rdi
  402c43:	e8 78 e0 ff ff       	callq  400cc0 <strcpy@plt>
  402c48:	89 ef                	mov    %ebp,%edi
  402c4a:	e8 e1 e0 ff ff       	callq  400d30 <close@plt>
  402c4f:	0f b6 03             	movzbl (%rbx),%eax
  402c52:	ba 4f 00 00 00       	mov    $0x4f,%edx
  402c57:	29 c2                	sub    %eax,%edx
  402c59:	75 22                	jne    402c7d <submitr+0x6f4>
  402c5b:	0f b6 4b 01          	movzbl 0x1(%rbx),%ecx
  402c5f:	b8 4b 00 00 00       	mov    $0x4b,%eax
  402c64:	29 c8                	sub    %ecx,%eax
  402c66:	75 17                	jne    402c7f <submitr+0x6f6>
  402c68:	0f b6 4b 02          	movzbl 0x2(%rbx),%ecx
  402c6c:	b8 0a 00 00 00       	mov    $0xa,%eax
  402c71:	29 c8                	sub    %ecx,%eax
  402c73:	75 0a                	jne    402c7f <submitr+0x6f6>
  402c75:	0f b6 43 03          	movzbl 0x3(%rbx),%eax
  402c79:	f7 d8                	neg    %eax
  402c7b:	eb 02                	jmp    402c7f <submitr+0x6f6>
  402c7d:	89 d0                	mov    %edx,%eax
  402c7f:	85 c0                	test   %eax,%eax
  402c81:	74 40                	je     402cc3 <submitr+0x73a>
  402c83:	bf 90 38 40 00       	mov    $0x403890,%edi
  402c88:	b9 05 00 00 00       	mov    $0x5,%ecx
  402c8d:	48 89 de             	mov    %rbx,%rsi
  402c90:	f3 a6                	repz cmpsb %es:(%rdi),%ds:(%rsi)
  402c92:	0f 97 c0             	seta   %al
  402c95:	0f 92 c1             	setb   %cl
  402c98:	29 c8                	sub    %ecx,%eax
  402c9a:	0f be c0             	movsbl %al,%eax
  402c9d:	85 c0                	test   %eax,%eax
  402c9f:	74 2e                	je     402ccf <submitr+0x746>
  402ca1:	85 d2                	test   %edx,%edx
  402ca3:	75 13                	jne    402cb8 <submitr+0x72f>
  402ca5:	0f b6 43 01          	movzbl 0x1(%rbx),%eax
  402ca9:	ba 4b 00 00 00       	mov    $0x4b,%edx
  402cae:	29 c2                	sub    %eax,%edx
  402cb0:	75 06                	jne    402cb8 <submitr+0x72f>
  402cb2:	0f b6 53 02          	movzbl 0x2(%rbx),%edx
  402cb6:	f7 da                	neg    %edx
  402cb8:	85 d2                	test   %edx,%edx
  402cba:	75 0e                	jne    402cca <submitr+0x741>
  402cbc:	b8 00 00 00 00       	mov    $0x0,%eax
  402cc1:	eb 0c                	jmp    402ccf <submitr+0x746>
  402cc3:	b8 00 00 00 00       	mov    $0x0,%eax
  402cc8:	eb 05                	jmp    402ccf <submitr+0x746>
  402cca:	b8 ff ff ff ff       	mov    $0xffffffff,%eax
  402ccf:	48 8b 9c 24 48 a0 00 	mov    0xa048(%rsp),%rbx
  402cd6:	00 
  402cd7:	64 48 33 1c 25 28 00 	xor    %fs:0x28,%rbx
  402cde:	00 00 
  402ce0:	74 05                	je     402ce7 <submitr+0x75e>
  402ce2:	e8 09 e0 ff ff       	callq  400cf0 <__stack_chk_fail@plt>
  402ce7:	48 81 c4 58 a0 00 00 	add    $0xa058,%rsp
  402cee:	5b                   	pop    %rbx
  402cef:	5d                   	pop    %rbp
  402cf0:	41 5c                	pop    %r12
  402cf2:	41 5d                	pop    %r13
  402cf4:	41 5e                	pop    %r14
  402cf6:	41 5f                	pop    %r15
  402cf8:	c3                   	retq   

0000000000402cf9 <init_timeout>:
  402cf9:	85 ff                	test   %edi,%edi
  402cfb:	74 23                	je     402d20 <init_timeout+0x27>
  402cfd:	53                   	push   %rbx
  402cfe:	89 fb                	mov    %edi,%ebx
  402d00:	85 ff                	test   %edi,%edi
  402d02:	79 05                	jns    402d09 <init_timeout+0x10>
  402d04:	bb 00 00 00 00       	mov    $0x0,%ebx
  402d09:	be bd 22 40 00       	mov    $0x4022bd,%esi
  402d0e:	bf 0e 00 00 00       	mov    $0xe,%edi
  402d13:	e8 48 e0 ff ff       	callq  400d60 <signal@plt>
  402d18:	89 df                	mov    %ebx,%edi
  402d1a:	e8 01 e0 ff ff       	callq  400d20 <alarm@plt>
  402d1f:	5b                   	pop    %rbx
  402d20:	f3 c3                	repz retq 

0000000000402d22 <init_driver>:
  402d22:	55                   	push   %rbp
  402d23:	53                   	push   %rbx
  402d24:	48 83 ec 28          	sub    $0x28,%rsp
  402d28:	48 89 fd             	mov    %rdi,%rbp
  402d2b:	64 48 8b 04 25 28 00 	mov    %fs:0x28,%rax
  402d32:	00 00 
  402d34:	48 89 44 24 18       	mov    %rax,0x18(%rsp)
  402d39:	31 c0                	xor    %eax,%eax
  402d3b:	be 01 00 00 00       	mov    $0x1,%esi
  402d40:	bf 0d 00 00 00       	mov    $0xd,%edi
  402d45:	e8 16 e0 ff ff       	callq  400d60 <signal@plt>
  402d4a:	be 01 00 00 00       	mov    $0x1,%esi
  402d4f:	bf 1d 00 00 00       	mov    $0x1d,%edi
  402d54:	e8 07 e0 ff ff       	callq  400d60 <signal@plt>
  402d59:	be 01 00 00 00       	mov    $0x1,%esi
  402d5e:	bf 1d 00 00 00       	mov    $0x1d,%edi
  402d63:	e8 f8 df ff ff       	callq  400d60 <signal@plt>
  402d68:	ba 00 00 00 00       	mov    $0x0,%edx
  402d6d:	be 01 00 00 00       	mov    $0x1,%esi
  402d72:	bf 02 00 00 00       	mov    $0x2,%edi
  402d77:	e8 14 e1 ff ff       	callq  400e90 <socket@plt>
  402d7c:	85 c0                	test   %eax,%eax
  402d7e:	79 4f                	jns    402dcf <init_driver+0xad>
  402d80:	48 b8 45 72 72 6f 72 	movabs $0x43203a726f727245,%rax
  402d87:	3a 20 43 
  402d8a:	48 89 45 00          	mov    %rax,0x0(%rbp)
  402d8e:	48 b8 6c 69 65 6e 74 	movabs $0x6e7520746e65696c,%rax
  402d95:	20 75 6e 
  402d98:	48 89 45 08          	mov    %rax,0x8(%rbp)
  402d9c:	48 b8 61 62 6c 65 20 	movabs $0x206f7420656c6261,%rax
  402da3:	74 6f 20 
  402da6:	48 89 45 10          	mov    %rax,0x10(%rbp)
  402daa:	48 b8 63 72 65 61 74 	movabs $0x7320657461657263,%rax
  402db1:	65 20 73 
  402db4:	48 89 45 18          	mov    %rax,0x18(%rbp)
  402db8:	c7 45 20 6f 63 6b 65 	movl   $0x656b636f,0x20(%rbp)
  402dbf:	66 c7 45 24 74 00    	movw   $0x74,0x24(%rbp)
  402dc5:	b8 ff ff ff ff       	mov    $0xffffffff,%eax
  402dca:	e9 2a 01 00 00       	jmpq   402ef9 <init_driver+0x1d7>
  402dcf:	89 c3                	mov    %eax,%ebx
  402dd1:	bf 95 38 40 00       	mov    $0x403895,%edi
  402dd6:	e8 95 df ff ff       	callq  400d70 <gethostbyname@plt>
  402ddb:	48 85 c0             	test   %rax,%rax
  402dde:	75 68                	jne    402e48 <init_driver+0x126>
  402de0:	48 b8 45 72 72 6f 72 	movabs $0x44203a726f727245,%rax
  402de7:	3a 20 44 
  402dea:	48 89 45 00          	mov    %rax,0x0(%rbp)
  402dee:	48 b8 4e 53 20 69 73 	movabs $0x6e7520736920534e,%rax
  402df5:	20 75 6e 
  402df8:	48 89 45 08          	mov    %rax,0x8(%rbp)
  402dfc:	48 b8 61 62 6c 65 20 	movabs $0x206f7420656c6261,%rax
  402e03:	74 6f 20 
  402e06:	48 89 45 10          	mov    %rax,0x10(%rbp)
  402e0a:	48 b8 72 65 73 6f 6c 	movabs $0x2065766c6f736572,%rax
  402e11:	76 65 20 
  402e14:	48 89 45 18          	mov    %rax,0x18(%rbp)
  402e18:	48 b8 73 65 72 76 65 	movabs $0x6120726576726573,%rax
  402e1f:	72 20 61 
  402e22:	48 89 45 20          	mov    %rax,0x20(%rbp)
  402e26:	c7 45 28 64 64 72 65 	movl   $0x65726464,0x28(%rbp)
  402e2d:	66 c7 45 2c 73 73    	movw   $0x7373,0x2c(%rbp)
  402e33:	c6 45 2e 00          	movb   $0x0,0x2e(%rbp)
  402e37:	89 df                	mov    %ebx,%edi
  402e39:	e8 f2 de ff ff       	callq  400d30 <close@plt>
  402e3e:	b8 ff ff ff ff       	mov    $0xffffffff,%eax
  402e43:	e9 b1 00 00 00       	jmpq   402ef9 <init_driver+0x1d7>
  402e48:	48 c7 04 24 00 00 00 	movq   $0x0,(%rsp)
  402e4f:	00 
  402e50:	48 c7 44 24 08 00 00 	movq   $0x0,0x8(%rsp)
  402e57:	00 00 
  402e59:	66 c7 04 24 02 00    	movw   $0x2,(%rsp)
  402e5f:	48 63 50 14          	movslq 0x14(%rax),%rdx
  402e63:	48 8b 40 18          	mov    0x18(%rax),%rax
  402e67:	48 8b 30             	mov    (%rax),%rsi
  402e6a:	48 8d 7c 24 04       	lea    0x4(%rsp),%rdi
  402e6f:	b9 0c 00 00 00       	mov    $0xc,%ecx
  402e74:	e8 07 df ff ff       	callq  400d80 <__memmove_chk@plt>
  402e79:	66 c7 44 24 02 3c 9a 	movw   $0x9a3c,0x2(%rsp)
  402e80:	ba 10 00 00 00       	mov    $0x10,%edx
  402e85:	48 89 e6             	mov    %rsp,%rsi
  402e88:	89 df                	mov    %ebx,%edi
  402e8a:	e8 d1 df ff ff       	callq  400e60 <connect@plt>
  402e8f:	85 c0                	test   %eax,%eax
  402e91:	79 50                	jns    402ee3 <init_driver+0x1c1>
  402e93:	48 b8 45 72 72 6f 72 	movabs $0x55203a726f727245,%rax
  402e9a:	3a 20 55 
  402e9d:	48 89 45 00          	mov    %rax,0x0(%rbp)
  402ea1:	48 b8 6e 61 62 6c 65 	movabs $0x6f7420656c62616e,%rax
  402ea8:	20 74 6f 
  402eab:	48 89 45 08          	mov    %rax,0x8(%rbp)
  402eaf:	48 b8 20 63 6f 6e 6e 	movabs $0x7463656e6e6f6320,%rax
  402eb6:	65 63 74 
  402eb9:	48 89 45 10          	mov    %rax,0x10(%rbp)
  402ebd:	48 b8 20 74 6f 20 73 	movabs $0x76726573206f7420,%rax
  402ec4:	65 72 76 
  402ec7:	48 89 45 18          	mov    %rax,0x18(%rbp)
  402ecb:	66 c7 45 20 65 72    	movw   $0x7265,0x20(%rbp)
  402ed1:	c6 45 22 00          	movb   $0x0,0x22(%rbp)
  402ed5:	89 df                	mov    %ebx,%edi
  402ed7:	e8 54 de ff ff       	callq  400d30 <close@plt>
  402edc:	b8 ff ff ff ff       	mov    $0xffffffff,%eax
  402ee1:	eb 16                	jmp    402ef9 <init_driver+0x1d7>
  402ee3:	89 df                	mov    %ebx,%edi
  402ee5:	e8 46 de ff ff       	callq  400d30 <close@plt>
  402eea:	66 c7 45 00 4f 4b    	movw   $0x4b4f,0x0(%rbp)
  402ef0:	c6 45 02 00          	movb   $0x0,0x2(%rbp)
  402ef4:	b8 00 00 00 00       	mov    $0x0,%eax
  402ef9:	48 8b 4c 24 18       	mov    0x18(%rsp),%rcx
  402efe:	64 48 33 0c 25 28 00 	xor    %fs:0x28,%rcx
  402f05:	00 00 
  402f07:	74 05                	je     402f0e <init_driver+0x1ec>
  402f09:	e8 e2 dd ff ff       	callq  400cf0 <__stack_chk_fail@plt>
  402f0e:	48 83 c4 28          	add    $0x28,%rsp
  402f12:	5b                   	pop    %rbx
  402f13:	5d                   	pop    %rbp
  402f14:	c3                   	retq   

0000000000402f15 <driver_post>:
  402f15:	53                   	push   %rbx
  402f16:	4c 89 cb             	mov    %r9,%rbx
  402f19:	45 85 c0             	test   %r8d,%r8d
  402f1c:	74 27                	je     402f45 <driver_post+0x30>
  402f1e:	48 89 ca             	mov    %rcx,%rdx
  402f21:	be a3 38 40 00       	mov    $0x4038a3,%esi
  402f26:	bf 01 00 00 00       	mov    $0x1,%edi
  402f2b:	b8 00 00 00 00       	mov    $0x0,%eax
  402f30:	e8 cb de ff ff       	callq  400e00 <__printf_chk@plt>
  402f35:	66 c7 03 4f 4b       	movw   $0x4b4f,(%rbx)
  402f3a:	c6 43 02 00          	movb   $0x0,0x2(%rbx)
  402f3e:	b8 00 00 00 00       	mov    $0x0,%eax
  402f43:	eb 3f                	jmp    402f84 <driver_post+0x6f>
  402f45:	48 85 ff             	test   %rdi,%rdi
  402f48:	74 2c                	je     402f76 <driver_post+0x61>
  402f4a:	80 3f 00             	cmpb   $0x0,(%rdi)
  402f4d:	74 27                	je     402f76 <driver_post+0x61>
  402f4f:	48 83 ec 08          	sub    $0x8,%rsp
  402f53:	41 51                	push   %r9
  402f55:	49 89 c9             	mov    %rcx,%r9
  402f58:	49 89 d0             	mov    %rdx,%r8
  402f5b:	48 89 f9             	mov    %rdi,%rcx
  402f5e:	48 89 f2             	mov    %rsi,%rdx
  402f61:	be 9a 3c 00 00       	mov    $0x3c9a,%esi
  402f66:	bf 95 38 40 00       	mov    $0x403895,%edi
  402f6b:	e8 19 f6 ff ff       	callq  402589 <submitr>
  402f70:	48 83 c4 10          	add    $0x10,%rsp
  402f74:	eb 0e                	jmp    402f84 <driver_post+0x6f>
  402f76:	66 c7 03 4f 4b       	movw   $0x4b4f,(%rbx)
  402f7b:	c6 43 02 00          	movb   $0x0,0x2(%rbx)
  402f7f:	b8 00 00 00 00       	mov    $0x0,%eax
  402f84:	5b                   	pop    %rbx
  402f85:	c3                   	retq   

0000000000402f86 <check>:
  402f86:	89 f8                	mov    %edi,%eax
  402f88:	c1 e8 1c             	shr    $0x1c,%eax
  402f8b:	85 c0                	test   %eax,%eax
  402f8d:	74 1d                	je     402fac <check+0x26>
  402f8f:	b9 00 00 00 00       	mov    $0x0,%ecx
  402f94:	eb 0b                	jmp    402fa1 <check+0x1b>
  402f96:	89 f8                	mov    %edi,%eax
  402f98:	d3 e8                	shr    %cl,%eax
  402f9a:	3c 0a                	cmp    $0xa,%al
  402f9c:	74 14                	je     402fb2 <check+0x2c>
  402f9e:	83 c1 08             	add    $0x8,%ecx
  402fa1:	83 f9 1f             	cmp    $0x1f,%ecx
  402fa4:	7e f0                	jle    402f96 <check+0x10>
  402fa6:	b8 01 00 00 00       	mov    $0x1,%eax
  402fab:	c3                   	retq   
  402fac:	b8 00 00 00 00       	mov    $0x0,%eax
  402fb1:	c3                   	retq   
  402fb2:	b8 00 00 00 00       	mov    $0x0,%eax
  402fb7:	c3                   	retq   

0000000000402fb8 <gencookie>:
  402fb8:	53                   	push   %rbx
  402fb9:	83 c7 01             	add    $0x1,%edi
  402fbc:	e8 df dc ff ff       	callq  400ca0 <srandom@plt>
  402fc1:	e8 fa dd ff ff       	callq  400dc0 <random@plt>
  402fc6:	89 c3                	mov    %eax,%ebx
  402fc8:	89 c7                	mov    %eax,%edi
  402fca:	e8 b7 ff ff ff       	callq  402f86 <check>
  402fcf:	85 c0                	test   %eax,%eax
  402fd1:	74 ee                	je     402fc1 <gencookie+0x9>
  402fd3:	89 d8                	mov    %ebx,%eax
  402fd5:	5b                   	pop    %rbx
  402fd6:	c3                   	retq   
  402fd7:	66 0f 1f 84 00 00 00 	nopw   0x0(%rax,%rax,1)
  402fde:	00 00 

0000000000402fe0 <__libc_csu_init>:
  402fe0:	41 57                	push   %r15
  402fe2:	41 56                	push   %r14
  402fe4:	41 89 ff             	mov    %edi,%r15d
  402fe7:	41 55                	push   %r13
  402fe9:	41 54                	push   %r12
  402feb:	4c 8d 25 1e 1e 20 00 	lea    0x201e1e(%rip),%r12        # 604e10 <__frame_dummy_init_array_entry>
  402ff2:	55                   	push   %rbp
  402ff3:	48 8d 2d 1e 1e 20 00 	lea    0x201e1e(%rip),%rbp        # 604e18 <__init_array_end>
  402ffa:	53                   	push   %rbx
  402ffb:	49 89 f6             	mov    %rsi,%r14
  402ffe:	49 89 d5             	mov    %rdx,%r13
  403001:	4c 29 e5             	sub    %r12,%rbp
  403004:	48 83 ec 08          	sub    $0x8,%rsp
  403008:	48 c1 fd 03          	sar    $0x3,%rbp
  40300c:	e8 37 dc ff ff       	callq  400c48 <_init>
  403011:	48 85 ed             	test   %rbp,%rbp
  403014:	74 20                	je     403036 <__libc_csu_init+0x56>
  403016:	31 db                	xor    %ebx,%ebx
  403018:	0f 1f 84 00 00 00 00 	nopl   0x0(%rax,%rax,1)
  40301f:	00 
  403020:	4c 89 ea             	mov    %r13,%rdx
  403023:	4c 89 f6             	mov    %r14,%rsi
  403026:	44 89 ff             	mov    %r15d,%edi
  403029:	41 ff 14 dc          	callq  *(%r12,%rbx,8)
  40302d:	48 83 c3 01          	add    $0x1,%rbx
  403031:	48 39 eb             	cmp    %rbp,%rbx
  403034:	75 ea                	jne    403020 <__libc_csu_init+0x40>
  403036:	48 83 c4 08          	add    $0x8,%rsp
  40303a:	5b                   	pop    %rbx
  40303b:	5d                   	pop    %rbp
  40303c:	41 5c                	pop    %r12
  40303e:	41 5d                	pop    %r13
  403040:	41 5e                	pop    %r14
  403042:	41 5f                	pop    %r15
  403044:	c3                   	retq   
  403045:	90                   	nop
  403046:	66 2e 0f 1f 84 00 00 	nopw   %cs:0x0(%rax,%rax,1)
  40304d:	00 00 00 

0000000000403050 <__libc_csu_fini>:
  403050:	f3 c3                	repz retq 

Disassembly of section .fini:

0000000000403054 <_fini>:
  403054:	48 83 ec 08          	sub    $0x8,%rsp
  403058:	48 83 c4 08          	add    $0x8,%rsp
  40305c:	c3                   	retq   
